 addon

 Timestamp is 5672762d (Thu Dec 17 16:45:33 2015)

 Preferred load address is 0000000180000000

 Start         Length     Name                   Class
 0001:00000000 00000037H .text$di                CODE
 0001:00000040 0000f0fcH .text$mn                CODE
 0001:0000f140 00000300H .text$x                 CODE
 0001:0000f440 00000003H .text$yd                CODE
 0002:00000000 000002f8H .idata$5                DATA
 0002:000002f8 00000008H .CRT$XCA                DATA
 0002:00000300 00000020H .CRT$XCU                DATA
 0002:00000320 00000008H .CRT$XCZ                DATA
 0002:00000328 00000008H .CRT$XIA                DATA
 0002:00000330 00000020H .CRT$XIC                DATA
 0002:00000350 00000008H .CRT$XIZ                DATA
 0002:00000358 00000008H .CRT$XPA                DATA
 0002:00000360 00000010H .CRT$XPX                DATA
 0002:00000370 00000008H .CRT$XPXA               DATA
 0002:00000378 00000008H .CRT$XPZ                DATA
 0002:00000380 00000008H .CRT$XTA                DATA
 0002:00000388 00000008H .CRT$XTZ                DATA
 0002:00000390 00005390H .rdata                  DATA
 0002:00005720 000000b8H .rdata$debug            DATA
 0002:000057d8 00000008H .rtc$IAA                DATA
 0002:000057e0 00000008H .rtc$IZZ                DATA
 0002:000057e8 00000008H .rtc$TAA                DATA
 0002:000057f0 00000008H .rtc$TZZ                DATA
 0002:000057f8 00000b74H .xdata                  DATA
 0002:00006370 0000004eH .edata                  DATA
 0002:000063c0 00000028H .idata$2                DATA
 0002:000063e8 00000014H .idata$3                DATA
 0002:00006400 000002f8H .idata$4                DATA
 0002:000066f8 00000b68H .idata$6                DATA
 0003:00000000 00001900H .data                   DATA
 0003:00001900 000023d0H .bss                    DATA
 0004:00000000 00000b28H .pdata                  DATA
 0005:00000000 00000058H .rsrc$01                DATA
 0005:00000060 00000180H .rsrc$02                DATA

  Address         Publics by Value              Rva+Base               Lib:Object

 0000:00000000       __guard_fids_count         0000000000000000     <absolute>
 0000:00000000       ___safe_se_handler_count   0000000000000000     <absolute>
 0000:00000000       __guard_flags              0000000000000000     <absolute>
 0000:00000000       ___safe_se_handler_table   0000000000000000     <absolute>
 0000:00000000       __guard_fids_table         0000000000000000     <absolute>
 0000:00000000       __ImageBase                0000000180000000     <linker-defined>
 0001:00000040       ?snprintf@?A0x6869d10c@@YAHPEAD_KPEBDZZ 0000000180001040 f i heapdump.obj
 0001:00000080       ?GetChunkSize@FileOutputStream@?A0x6869d10c@@UEAAHXZ 0000000180001080 f i heapdump.obj
 0001:00000090       ?EndOfStream@FileOutputStream@?A0x6869d10c@@UEAAXXZ 0000000180001090 f i heapdump.obj
 0001:000000a0       ?WriteAsciiChunk@FileOutputStream@?A0x6869d10c@@UEAA?AW4WriteResult@OutputStream@v8@@PEADH@Z 00000001800010a0 f i heapdump.obj
 0001:00000130       ??_GFileOutputStream@?A0x6869d10c@@UEAAPEAXI@Z 0000000180001130 f i heapdump.obj
 0001:00000130       ??_EFileOutputStream@?A0x6869d10c@@UEAAPEAXI@Z 0000000180001130 f i * CIL library *:* CIL module *
 0001:00000160       ?WriteSnapshot@?A0x6869d10c@@YAXAEBV?$FunctionCallbackInfo@VValue@v8@@@v8@@@Z 0000000180001160 f i heapdump.obj
 0001:000003d0       ?InvokeCallback@?A0x6869d10c@@YAXPEBD@Z 00000001800013d0 f i heapdump.obj
 0001:000004d0       ?Configure@?A0x6869d10c@@YAXAEBV?$FunctionCallbackInfo@VValue@v8@@@v8@@@Z 00000001800014d0 f i heapdump.obj
 0001:00000520       ?Initialize@?A0x6869d10c@@YAXV?$Local@VObject@v8@@@v8@@@Z 0000000180001520 f i heapdump.obj
 0001:000006be       ?WriteHeapStatsChunk@OutputStream@v8@@UEAA?AW4WriteResult@12@PEAUHeapStatsUpdate@2@H@Z 00000001800016be f   node:node.exe
 0001:000006e0       __security_check_cookie    00000001800016e0 f   LIBCMT:amdsecgs.obj
 0001:00000700       feof                       0000000180001700 f   LIBCMT:feoferr.obj
 0001:00000728       ferror                     0000000180001728 f   LIBCMT:feoferr.obj
 0001:00000750       __onexitinit               0000000180001750 f   LIBCMT:onexit.obj
 0001:00000794       _onexit                    0000000180001794 f   LIBCMT:onexit.obj
 0001:000008a0       atexit                     00000001800018a0 f   LIBCMT:onexit.obj
 0001:000008b8       _fsopen                    00000001800018b8 f   LIBCMT:fopen.obj
 0001:00000990       fopen                      0000000180001990 f   LIBCMT:fopen.obj
 0001:0000099c       ??3@YAXPEAX@Z              000000018000199c f   LIBCMT:delete.obj
 0001:000009a4       _fwrite_nolock             00000001800019a4 f   LIBCMT:fwrite.obj
 0001:00000b34       fwrite                     0000000180001b34 f   LIBCMT:fwrite.obj
 0001:00000bc4       _vsnprintf_helper          0000000180001bc4 f   LIBCMT:vsnprnc.obj
 0001:00000cac       _vsprintf_p                0000000180001cac f   LIBCMT:vsnprnc.obj
 0001:00000ce0       _fclose_nolock             0000000180001ce0 f   LIBCMT:fclose.obj
 0001:00000d5c       fclose                     0000000180001d5c f   LIBCMT:fclose.obj
 0001:00000dc4       _CRT_INIT                  0000000180001dc4 f   LIBCMT:dllcrt0.obj
 0001:00000f24       _DllMainCRTStartup         0000000180001f24 f   LIBCMT:dllcrt0.obj
 0001:00001084       __raise_securityfailure    0000000180002084 f   LIBCMT:gs_report.obj
 0001:000010d0       __report_gsfailure         00000001800020d0 f   LIBCMT:gs_report.obj
 0001:000011a4       _call_reportfault          00000001800021a4 f   LIBCMT:invarg.obj
 0001:00001298       _initp_misc_invarg         0000000180002298 f   LIBCMT:invarg.obj
 0001:000012a0       _invalid_parameter         00000001800022a0 f   LIBCMT:invarg.obj
 0001:00001308       _invalid_parameter_noinfo  0000000180002308 f   LIBCMT:invarg.obj
 0001:00001328       _invoke_watson             0000000180002328 f   LIBCMT:invarg.obj
 0001:00001364       __doserrno                 0000000180002364 f   LIBCMT:dosmap.obj
 0001:00001384       _dosmaperr                 0000000180002384 f   LIBCMT:dosmap.obj
 0001:000013d4       _errno                     00000001800023d4 f   LIBCMT:dosmap.obj
 0001:000013f4       _get_errno_from_oserr      00000001800023f4 f   LIBCMT:dosmap.obj
 0001:00001444       __copy_path_to_wide_string 0000000180002444 f   LIBCMT:crt0dat.obj
 0001:00001544       __crtCorExitProcess        0000000180002544 f   LIBCMT:crt0dat.obj
 0001:00001588       __crtExitProcess           0000000180002588 f   LIBCMT:crt0dat.obj
 0001:000015a0       __freeCrtMemory            00000001800025a0 f   LIBCMT:crt0dat.obj
 0001:000016e8       _amsg_exit                 00000001800026e8 f   LIBCMT:crt0dat.obj
 0001:00001710       _cexit                     0000000180002710 f   LIBCMT:crt0dat.obj
 0001:00001720       _cinit                     0000000180002720 f   LIBCMT:crt0dat.obj
 0001:000017b8       _exit                      00000001800027b8 f   LIBCMT:crt0dat.obj
 0001:000017c4       _init_pointers             00000001800027c4 f   LIBCMT:crt0dat.obj
 0001:00001870       _initterm_e                0000000180002870 f   LIBCMT:crt0dat.obj
 0001:000018ac       _lockexit                  00000001800028ac f   LIBCMT:crt0dat.obj
 0001:000018b8       _unlockexit                00000001800028b8 f   LIBCMT:crt0dat.obj
 0001:00001a5c       _msize                     0000000180002a5c f   LIBCMT:msize.obj
 0001:00001a98       _calloc_crt                0000000180002a98 f   LIBCMT:crtheap.obj
 0001:00001b18       _malloc_crt                0000000180002b18 f   LIBCMT:crtheap.obj
 0001:00001b94       _realloc_crt               0000000180002b94 f   LIBCMT:crtheap.obj
 0001:00001c18       __C_specific_handler       0000000180002c18 f   LIBCMT:chandler.obj
 0001:00001dfc       __initstdio                0000000180002dfc f   LIBCMT:_file.obj
 0001:00001e94       __endstdio                 0000000180002e94 f   LIBCMT:_file.obj
 0001:00001ec4       __iob_func                 0000000180002ec4 f   LIBCMT:_file.obj
 0001:00001ecc       _lock_file                 0000000180002ecc f   LIBCMT:_file.obj
 0001:00001f34       _lock_file2                0000000180002f34 f   LIBCMT:_file.obj
 0001:00001f68       _unlock_file               0000000180002f68 f   LIBCMT:_file.obj
 0001:00001fb8       _unlock_file2              0000000180002fb8 f   LIBCMT:_file.obj
 0001:00001fd8       _getstream                 0000000180002fd8 f   LIBCMT:stream.obj
 0001:00002110       _openfile                  0000000180003110 f   LIBCMT:_open.obj
 0001:000023e0       _local_unwind              00000001800033e0 f   LIBCMT:jmpuwind.obj
 0001:00002410       _NLG_Notify                0000000180003410 f   LIBCMT:jmpuwind.obj
 0001:00002430       __NLG_Dispatch2            0000000180003430 f   LIBCMT:jmpuwind.obj
 0001:00002440       __NLG_Return2              0000000180003440 f   LIBCMT:jmpuwind.obj
 0001:00002444       free                       0000000180003444 f   LIBCMT:free.obj
 0001:00002484       _flsbuf                    0000000180003484 f   LIBCMT:_flsbuf.obj
 0001:00002610       _fileno                    0000000180003610 f   LIBCMT:fileno.obj
 0001:00002650       memmove                    0000000180003650 f   LIBCMT:memcpy.obj
 0001:00002650       memcpy                     0000000180003650 f   LIBCMT:memcpy.obj
 0001:00002bb8       _write                     0000000180003bb8 f   LIBCMT:write.obj
 0001:00002c9c       _write_nolock              0000000180003c9c f   LIBCMT:write.obj
 0001:00003490       _fflush_nolock             0000000180004490 f   LIBCMT:fflush.obj
 0001:000034dc       _flush                     00000001800044dc f   LIBCMT:fflush.obj
 0001:00003558       _flushall                  0000000180004558 f   LIBCMT:fflush.obj
 0001:0000364c       _fpmath                    000000018000464c f   LIBCMT:fpinit.obj
 0001:00003654       _cfltcvt_init              0000000180004654 f   LIBCMT:fpinit.obj
 0001:000036dc       ??0_LocaleUpdate@@QEAA@PEAUlocaleinfo_struct@@@Z 00000001800046dc f i LIBCMT:output.obj
 0001:00003784       _output_p_l                0000000180004784 f   LIBCMT:outputp.obj
 0001:00004858       _validate_param_reuseA     0000000180005858 f   LIBCMT:outputp.obj
 0001:00004ac0       memset                     0000000180005ac0 f   LIBCMT:memset.obj
 0001:00004cec       _close                     0000000180005cec f   LIBCMT:close.obj
 0001:00004db0       _close_nolock              0000000180005db0 f   LIBCMT:close.obj
 0001:00004e6c       _freebuf                   0000000180005e6c f   LIBCMT:_freebuf.obj
 0001:00004ea4       _XcptFilter                0000000180005ea4 f   LIBCMT:winxfltr.obj
 0001:00005070       __CppXcptFilter            0000000180006070 f   LIBCMT:winxfltr.obj
 0001:00005084       _freefls                   0000000180006084 f   LIBCMT:tidtable.obj
 0001:000051b8       _freeptd                   00000001800061b8 f   LIBCMT:tidtable.obj
 0001:000051f4       _getptd                    00000001800061f4 f   LIBCMT:tidtable.obj
 0001:00005218       _getptd_noexit             0000000180006218 f   LIBCMT:tidtable.obj
 0001:0000529c       _initptd                   000000018000629c f   LIBCMT:tidtable.obj
 0001:00005360       _mtinit                    0000000180006360 f   LIBCMT:tidtable.obj
 0001:000053e0       _mtterm                    00000001800063e0 f   LIBCMT:tidtable.obj
 0001:00005404       _heap_init                 0000000180006404 f   LIBCMT:heapinit.obj
 0001:00005424       _heap_term                 0000000180006424 f   LIBCMT:heapinit.obj
 0001:00005430       _ioinit                    0000000180006430 f   LIBCMT:ioinit.obj
 0001:00005760       _ioterm                    0000000180006760 f   LIBCMT:ioinit.obj
 0001:000057d4       _setargv                   00000001800067d4 f   LIBCMT:stdargv.obj
 0001:00005a90       _setenvp                   0000000180006a90 f   LIBCMT:stdenvp.obj
 0001:00005bc4       __security_init_cookie     0000000180006bc4 f   LIBCMT:gs_support.obj
 0001:00005c70       DllMain                    0000000180006c70 f   LIBCMT:dllmain.obj
 0001:00005c78       __crtGetEnvironmentStringsA 0000000180006c78 f   LIBCMT:a_env.obj
 0001:00005d6c       __crtCaptureCurrentContext 0000000180006d6c f   LIBCMT:winapisupp.obj
 0001:00005ddc       __crtCapturePreviousContext 0000000180006ddc f   LIBCMT:winapisupp.obj
 0001:00005e50       __crtFlsAlloc              0000000180006e50 f   LIBCMT:winapisupp.obj
 0001:00005e6c       __crtFlsFree               0000000180006e6c f   LIBCMT:winapisupp.obj
 0001:00005e88       __crtFlsGetValue           0000000180006e88 f   LIBCMT:winapisupp.obj
 0001:00005ea4       __crtFlsSetValue           0000000180006ea4 f   LIBCMT:winapisupp.obj
 0001:00005ec0       __crtInitializeCriticalSectionEx 0000000180006ec0 f   LIBCMT:winapisupp.obj
 0001:00005eec       __crtIsPackagedApp         0000000180006eec f   LIBCMT:winapisupp.obj
 0001:00005f38       __crtLoadWinApiPointers    0000000180006f38 f   LIBCMT:winapisupp.obj
 0001:00006334       __crtSleep                 0000000180007334 f   LIBCMT:winapisupp.obj
 0001:0000633c       __crtTerminateProcess      000000018000733c f   LIBCMT:winapisupp.obj
 0001:0000635c       __crtUnhandledException    000000018000735c f   LIBCMT:winapisupp.obj
 0001:0000637c       _RTC_Initialize            000000018000737c f   LIBCMT:initsect.obj
 0001:000063b4       _RTC_Terminate             00000001800073b4 f   LIBCMT:initsect.obj
 0001:000063ec       __crt_debugger_hook        00000001800073ec f   LIBCMT:dbghook.obj
 0001:000063f4       __GSHandlerCheck           00000001800073f4 f   LIBCMT:gshandler.obj
 0001:00006414       __GSHandlerCheckCommon     0000000180007414 f   LIBCMT:gshandler.obj
 0001:00006478       _lock                      0000000180007478 f   LIBCMT:mlock.obj
 0001:000064bc       _mtdeletelocks             00000001800074bc f   LIBCMT:mlock.obj
 0001:00006544       _mtinitlocknum             0000000180007544 f   LIBCMT:mlock.obj
 0001:00006604       _mtinitlocks               0000000180007604 f   LIBCMT:mlock.obj
 0001:00006668       _unlock                    0000000180007668 f   LIBCMT:mlock.obj
 0001:00006680       _FF_MSGBANNER              0000000180007680 f   LIBCMT:crt0msg.obj
 0001:000066c4       _GET_RTERRMSG              00000001800076c4 f   LIBCMT:crt0msg.obj
 0001:000066f4       _NMSG_WRITE                00000001800076f4 f   LIBCMT:crt0msg.obj
 0001:00006970       _FindPESection             0000000180007970 f   LIBCMT:pesect.obj
 0001:000069c0       _IsNonwritableInCurrentImage 00000001800079c0 f   LIBCMT:pesect.obj
 0001:00006a10       _ValidateImageBase         0000000180007a10 f   LIBCMT:pesect.obj
 0001:00006a40       _initp_misc_cfltcvt_tab    0000000180007a40 f   LIBCMT:cmiscdat.obj
 0001:00006a7c       ?terminate@@YAXXZ          0000000180007a7c f   LIBCMT:hooks.obj
 0001:00006a9c       _initp_eh_hooks            0000000180007a9c f   LIBCMT:hooks.obj
 0001:00006abc       _callnewh                  0000000180007abc f   LIBCMT:handler.obj
 0001:00006af0       _initp_heap_handler        0000000180007af0 f   LIBCMT:handler.obj
 0001:00006af8       _initp_misc_purevirt       0000000180007af8 f   LIBCMT:inithelp.obj
 0001:00006b00       __get_sigabrt              0000000180007b00 f   LIBCMT:winsig.obj
 0001:00006b10       _initp_misc_winsig         0000000180007b10 f   LIBCMT:winsig.obj
 0001:00006b30       raise                      0000000180007b30 f   LIBCMT:winsig.obj
 0001:00006d64       _initp_misc_rand_s         0000000180007d64 f   LIBCMT:rand_s.obj
 0001:00006d6c       __initmbctable             0000000180007d6c f   LIBCMT:mbctype.obj
 0001:00007088       __updatetmbcinfo           0000000180008088 f   LIBCMT:mbctype.obj
 0001:00007144       _setmbcp                   0000000180008144 f   LIBCMT:mbctype.obj
 0001:00007388       _setmbcp_nolock            0000000180008388 f   LIBCMT:mbctype.obj
 0001:00007638       malloc                     0000000180008638 f   LIBCMT:malloc.obj
 0001:000076f0       realloc                    00000001800086f0 f   LIBCMT:realloc.obj
 0001:000077c4       _calloc_impl               00000001800087c4 f   LIBCMT:calloc_impl.obj
 0001:00007860       _fcloseall                 0000000180008860 f   LIBCMT:closeall.obj
 0001:00007908       _sopen_helper              0000000180008908 f   LIBCMT:open.obj
 0001:000079e8       _sopen_nolock              00000001800089e8 f   LIBCMT:open.obj
 0001:00007a70       _sopen_s                   0000000180008a70 f   LIBCMT:open.obj
 0001:00007aa4       _mbsnbcmp                  0000000180008aa4 f   LIBCMT:mbsnbcmp.obj
 0001:00007aac       _mbsnbcmp_l                0000000180008aac f   LIBCMT:mbsnbcmp.obj
 0001:00007bd8       _mbsnbicmp                 0000000180008bd8 f   LIBCMT:mbsnbicm.obj
 0001:00007be0       _mbsnbicmp_l               0000000180008be0 f   LIBCMT:mbsnbicm.obj
 0001:00007d90       _isatty                    0000000180008d90 f   LIBCMT:isatty.obj
 0001:00007df0       _lseeki64                  0000000180008df0 f   LIBCMT:lseeki64.obj
 0001:00007ed8       _lseeki64_nolock           0000000180008ed8 f   LIBCMT:lseeki64.obj
 0001:00007f6c       _getbuf                    0000000180008f6c f   LIBCMT:_getbuf.obj
 0001:00007fc0       __isa_available_init       0000000180008fc0 f   LIBCMT:cpu_disp.obj
 0001:00008164       _isleadbyte_l              0000000180009164 f i LIBCMT:_wctype.obj
 0001:000081a8       isleadbyte                 00000001800091a8 f i LIBCMT:_wctype.obj
 0001:000081f0       __lock_fhandle             00000001800091f0 f   LIBCMT:osfinfo.obj
 0001:00008288       _alloc_osfhnd              0000000180009288 f   LIBCMT:osfinfo.obj
 0001:00008480       _free_osfhnd               0000000180009480 f   LIBCMT:osfinfo.obj
 0001:0000852c       _get_osfhandle             000000018000952c f   LIBCMT:osfinfo.obj
 0001:000085a0       _set_osfhnd                00000001800095a0 f   LIBCMT:osfinfo.obj
 0001:00008650       _unlock_fhandle            0000000180009650 f   LIBCMT:osfinfo.obj
 0001:0000867c       _mbtowc_l                  000000018000967c f   LIBCMT:mbtowc.obj
 0001:000087d0       mbtowc                     00000001800097d0 f   LIBCMT:mbtowc.obj
 0001:000087d8       _putwch_nolock             00000001800097d8 f   LIBCMT:putwch.obj
 0001:00008850       _alloca_probe              0000000180009850 f   LIBCMT:chkstk.obj
 0001:00008850       __chkstk                   0000000180009850 f   LIBCMT:chkstk.obj
 0001:000088a0       _commit                    00000001800098a0 f   LIBCMT:commit.obj
 0001:00008990       _get_fpsr                  0000000180009990 f   LIBCMT:fpsr.obj
 0001:000089a0       _set_fpsr                  00000001800099a0 f   LIBCMT:fpsr.obj
 0001:000089aa       _fclrf                     00000001800099aa f   LIBCMT:fpsr.obj
 0001:000089be       _frnd                      00000001800099be f   LIBCMT:fpsr.obj
 0001:000089e0       _cfltcvt                   00000001800099e0 f   LIBCMT:cvt.obj
 0001:00008a04       _cfltcvt_l                 0000000180009a04 f   LIBCMT:cvt.obj
 0001:00008a84       _cftoa_l                   0000000180009a84 f   LIBCMT:cvt.obj
 0001:00009030       _cftoe_l                   000000018000a030 f   LIBCMT:cvt.obj
 0001:0000928c       _cftof_l                   000000018000a28c f   LIBCMT:cvt.obj
 0001:00009360       _cftog_l                   000000018000a360 f   LIBCMT:cvt.obj
 0001:00009494       _cropzeros                 000000018000a494 f   LIBCMT:cvt.obj
 0001:0000949c       _cropzeros_l               000000018000a49c f   LIBCMT:cvt.obj
 0001:00009534       _fassign                   000000018000a534 f   LIBCMT:cvt.obj
 0001:0000953c       _fassign_l                 000000018000a53c f   LIBCMT:cvt.obj
 0001:0000957c       _forcdecpt                 000000018000a57c f   LIBCMT:cvt.obj
 0001:00009584       _forcdecpt_l               000000018000a584 f   LIBCMT:cvt.obj
 0001:00009604       _positive                  000000018000a604 f   LIBCMT:cvt.obj
 0001:00009618       __addlocaleref             000000018000a618 f   LIBCMT:localref.obj
 0001:000096a4       __freetlocinfo             000000018000a6a4 f   LIBCMT:localref.obj
 0001:0000983c       __removelocaleref          000000018000a83c f   LIBCMT:localref.obj
 0001:000098e0       __updatetlocinfo           000000018000a8e0 f   LIBCMT:localref.obj
 0001:00009958       _updatetlocinfoEx_nolock   000000018000a958 f   LIBCMT:localref.obj
 0001:000099d0       strlen                     000000018000a9d0 f   LIBCMT:strlen.obj
 0001:00009a78       _get_printf_count_output   000000018000aa78 f   LIBCMT:printf.obj
 0001:00009a90       _wctomb_s_l                000000018000aa90 f   LIBCMT:wctomb.obj
 0001:00009c1c       wctomb_s                   000000018000ac1c f   LIBCMT:wctomb.obj
 0001:00009e6c       strtol                     000000018000ae6c f   LIBCMT:strtol.obj
 0001:00009f18       _ismbblead                 000000018000af18 f   LIBCMT:ismbbyte.obj
 0001:00009f2c       strcpy_s                   000000018000af2c f   LIBCMT:strcpy_s.obj
 0001:00009f90       wcscat_s                   000000018000af90 f   LIBCMT:wcscat_s.obj
 0001:0000a018       wcscpy_s                   000000018000b018 f   LIBCMT:wcscpy_s.obj
 0001:0000a084       wcslen                     000000018000b084 f   LIBCMT:wcslen.obj
 0001:0000a0a0       wcsncpy_s                  000000018000b0a0 f   LIBCMT:wcsncpy_s.obj
 0001:0000a16c       _set_error_mode            000000018000b16c f   LIBCMT:errmode.obj
 0001:0000a1ac       __crtMessageBoxW           000000018000b1ac f   LIBCMT:crtmboxw.obj
 0001:0000a420       _fptrap                    000000018000b420 f   LIBCMT:crt0fp.obj
 0001:0000a42c       abort                      000000018000b42c f   LIBCMT:abort.obj
 0001:0000a484       GetTableIndexFromLocaleName 000000018000b484 f   LIBCMT:winapinls.obj
 0001:0000a510       __crtDownlevelLocaleNameToLCID 000000018000b510 f   LIBCMT:winapinls.obj
 0001:0000a544       __crtLCMapStringEx         000000018000b544 f   LIBCMT:winapinls.obj
 0001:0000a5d4       __wcsnicmp_ascii           000000018000b5d4 f   LIBCMT:winapinls.obj
 0001:0000a918       __crtLCMapStringA          000000018000b918 f   LIBCMT:a_map.obj
 0001:0000ab28       __crtGetStringTypeA        000000018000bb28 f   LIBCMT:a_str.obj
 0001:0000ac94       _wsopen_nolock             000000018000bc94 f   LIBCMT:wopen.obj
 0001:0000b460       strncmp                    000000018000c460 f   LIBCMT:strncmp.obj
 0001:0000b4e0       __ascii_strnicmp           000000018000c4e0 f   LIBCMT:strnicmp.obj
 0001:0000b528       _strnicmp                  000000018000c528 f   LIBCMT:strnicmp.obj
 0001:0000b578       _strnicmp_l                000000018000c578 f   LIBCMT:strnicmp.obj
 0001:0000b654       __termconout               000000018000c654 f   LIBCMT:initcon.obj
 0001:0000b674       __initconout               000000018000c674 f   LIBCMT:initcon.obj
 0001:0000b6b0       isdigit                    000000018000c6b0 f i LIBCMT:_ctype.obj
 0001:0000b72c       _tolower_l                 000000018000c72c f   LIBCMT:tolower.obj
 0001:0000b880       tolower                    000000018000c880 f   LIBCMT:tolower.obj
 0001:0000b8a0       strrchr                    000000018000c8a0 f   LIBCMT:strrchr.obj
 0001:0000b9e4       _fptostr                   000000018000c9e4 f   LIBCMT:_fptostr.obj
 0001:0000bab0       __crt_atoflt_l             000000018000cab0 f   LIBCMT:atodbl.obj
 0001:0000bb80       _atodbl_l                  000000018000cb80 f   LIBCMT:atodbl.obj
 0001:0000bc48       _atoflt_l                  000000018000cc48 f   LIBCMT:atodbl.obj
 0001:0000bc50       __dtold                    000000018000cc50 f   LIBCMT:cfout.obj
 0001:0000bd20       _fltout2                   000000018000cd20 f   LIBCMT:cfout.obj
 0001:0000bdd8       __free_lconv_mon           000000018000cdd8 f   LIBCMT:initmon.obj
 0001:0000bee4       __free_lconv_num           000000018000cee4 f   LIBCMT:initnum.obj
 0001:0000bf50       __free_lc_time             000000018000cf50 f   LIBCMT:inittime.obj
 0001:0000c34c       _isctype_l                 000000018000d34c f   LIBCMT:isctype.obj
 0001:0000c428       _locterm                   000000018000d428 f   LIBCMT:wsetloca.obj
 0001:0000c470       _chsize_nolock             000000018000d470 f   LIBCMT:chsize.obj
 0001:0000c608       _read_nolock               000000018000d608 f   LIBCMT:read.obj
 0001:0000ce78       _get_fmode                 000000018000de78 f   LIBCMT:setmode.obj
 0001:0000cea8       _setmode_nolock            000000018000dea8 f   LIBCMT:setmode.obj
 0001:0000cf84       _ld12tod                   000000018000df84 f   LIBCMT:intrncvt.obj
 0001:0000d53c       _ld12tof                   000000018000e53c f   LIBCMT:intrncvt.obj
 0001:0000daf4       __strgtold12_l             000000018000eaf4 f   LIBCMT:strgtold.obj
 0001:0000e358       $I10_OUTPUT                000000018000f358 f   LIBCMT:x10fout.obj
 0001:0000ee40       memcmp                     000000018000fe40 f   LIBCMT:memcmp.obj
 0001:0000ef08       __mtold12                  000000018000ff08 f   LIBCMT:mantold.obj
 0001:0000f130       IsProcessorFeaturePresent  0000000180010130 f   kernel32:KERNEL32.dll
 0001:0000f136       RtlUnwindEx                0000000180010136 f   kernel32:KERNEL32.dll
 0002:00000000       __imp_GetProcessHeap       0000000180011000     kernel32:KERNEL32.dll
 0002:00000008       __imp_ReadConsoleW         0000000180011008     kernel32:KERNEL32.dll
 0002:00000010       __imp_ReadFile             0000000180011010     kernel32:KERNEL32.dll
 0002:00000018       __imp_SetEndOfFile         0000000180011018     kernel32:KERNEL32.dll
 0002:00000020       __imp_CreateFileW          0000000180011020     kernel32:KERNEL32.dll
 0002:00000028       __imp_GetStringTypeW       0000000180011028     kernel32:KERNEL32.dll
 0002:00000030       __imp_LCMapStringW         0000000180011030     kernel32:KERNEL32.dll
 0002:00000038       __imp_OutputDebugStringW   0000000180011038     kernel32:KERNEL32.dll
 0002:00000040       __imp_FlushFileBuffers     0000000180011040     kernel32:KERNEL32.dll
 0002:00000048       __imp_WriteConsoleW        0000000180011048     kernel32:KERNEL32.dll
 0002:00000050       __imp_SetStdHandle         0000000180011050     kernel32:KERNEL32.dll
 0002:00000058       __imp_SetFilePointerEx     0000000180011058     kernel32:KERNEL32.dll
 0002:00000060       __imp_HeapReAlloc          0000000180011060     kernel32:KERNEL32.dll
 0002:00000068       __imp_HeapAlloc            0000000180011068     kernel32:KERNEL32.dll
 0002:00000070       __imp_GetCPInfo            0000000180011070     kernel32:KERNEL32.dll
 0002:00000078       __imp_GetOEMCP             0000000180011078     kernel32:KERNEL32.dll
 0002:00000080       __imp_GetACP               0000000180011080     kernel32:KERNEL32.dll
 0002:00000088       __imp_IsValidCodePage      0000000180011088     kernel32:KERNEL32.dll
 0002:00000090       __imp_LoadLibraryExW       0000000180011090     kernel32:KERNEL32.dll
 0002:00000098       __imp_GetModuleFileNameW   0000000180011098     kernel32:KERNEL32.dll
 0002:000000a0       __imp_GetModuleHandleW     00000001800110a0     kernel32:KERNEL32.dll
 0002:000000a8       __imp_EncodePointer        00000001800110a8     kernel32:KERNEL32.dll
 0002:000000b0       __imp_DecodePointer        00000001800110b0     kernel32:KERNEL32.dll
 0002:000000b8       __imp_GetCommandLineA      00000001800110b8     kernel32:KERNEL32.dll
 0002:000000c0       __imp_GetCurrentThreadId   00000001800110c0     kernel32:KERNEL32.dll
 0002:000000c8       __imp_IsDebuggerPresent    00000001800110c8     kernel32:KERNEL32.dll
 0002:000000d0       __imp_IsProcessorFeaturePresent 00000001800110d0     kernel32:KERNEL32.dll
 0002:000000d8       __imp_GetLastError         00000001800110d8     kernel32:KERNEL32.dll
 0002:000000e0       __imp_ExitProcess          00000001800110e0     kernel32:KERNEL32.dll
 0002:000000e8       __imp_GetModuleHandleExW   00000001800110e8     kernel32:KERNEL32.dll
 0002:000000f0       __imp_GetProcAddress       00000001800110f0     kernel32:KERNEL32.dll
 0002:000000f8       __imp_AreFileApisANSI      00000001800110f8     kernel32:KERNEL32.dll
 0002:00000100       __imp_MultiByteToWideChar  0000000180011100     kernel32:KERNEL32.dll
 0002:00000108       __imp_WideCharToMultiByte  0000000180011108     kernel32:KERNEL32.dll
 0002:00000110       __imp_HeapSize             0000000180011110     kernel32:KERNEL32.dll
 0002:00000118       __imp_RtlUnwindEx          0000000180011118     kernel32:KERNEL32.dll
 0002:00000120       __imp_EnterCriticalSection 0000000180011120     kernel32:KERNEL32.dll
 0002:00000128       __imp_LeaveCriticalSection 0000000180011128     kernel32:KERNEL32.dll
 0002:00000130       __imp_HeapFree             0000000180011130     kernel32:KERNEL32.dll
 0002:00000138       __imp_WriteFile            0000000180011138     kernel32:KERNEL32.dll
 0002:00000140       __imp_GetConsoleCP         0000000180011140     kernel32:KERNEL32.dll
 0002:00000148       __imp_GetConsoleMode       0000000180011148     kernel32:KERNEL32.dll
 0002:00000150       __imp_CloseHandle          0000000180011150     kernel32:KERNEL32.dll
 0002:00000158       __imp_SetLastError         0000000180011158     kernel32:KERNEL32.dll
 0002:00000160       __imp_GetStdHandle         0000000180011160     kernel32:KERNEL32.dll
 0002:00000168       __imp_GetFileType          0000000180011168     kernel32:KERNEL32.dll
 0002:00000170       __imp_DeleteCriticalSection 0000000180011170     kernel32:KERNEL32.dll
 0002:00000178       __imp_GetStartupInfoW      0000000180011178     kernel32:KERNEL32.dll
 0002:00000180       __imp_GetModuleFileNameA   0000000180011180     kernel32:KERNEL32.dll
 0002:00000188       __imp_QueryPerformanceCounter 0000000180011188     kernel32:KERNEL32.dll
 0002:00000190       __imp_GetCurrentProcessId  0000000180011190     kernel32:KERNEL32.dll
 0002:00000198       __imp_GetSystemTimeAsFileTime 0000000180011198     kernel32:KERNEL32.dll
 0002:000001a0       __imp_GetEnvironmentStringsW 00000001800111a0     kernel32:KERNEL32.dll
 0002:000001a8       __imp_FreeEnvironmentStringsW 00000001800111a8     kernel32:KERNEL32.dll
 0002:000001b0       __imp_RtlCaptureContext    00000001800111b0     kernel32:KERNEL32.dll
 0002:000001b8       __imp_RtlLookupFunctionEntry 00000001800111b8     kernel32:KERNEL32.dll
 0002:000001c0       __imp_RtlVirtualUnwind     00000001800111c0     kernel32:KERNEL32.dll
 0002:000001c8       __imp_UnhandledExceptionFilter 00000001800111c8     kernel32:KERNEL32.dll
 0002:000001d0       __imp_SetUnhandledExceptionFilter 00000001800111d0     kernel32:KERNEL32.dll
 0002:000001d8       __imp_InitializeCriticalSectionAndSpinCount 00000001800111d8     kernel32:KERNEL32.dll
 0002:000001e0       __imp_Sleep                00000001800111e0     kernel32:KERNEL32.dll
 0002:000001e8       __imp_GetCurrentProcess    00000001800111e8     kernel32:KERNEL32.dll
 0002:000001f0       __imp_TerminateProcess     00000001800111f0     kernel32:KERNEL32.dll
 0002:000001f8       __imp_TlsAlloc             00000001800111f8     kernel32:KERNEL32.dll
 0002:00000200       __imp_TlsGetValue          0000000180011200     kernel32:KERNEL32.dll
 0002:00000208       __imp_TlsSetValue          0000000180011208     kernel32:KERNEL32.dll
 0002:00000210       __imp_TlsFree              0000000180011210     kernel32:KERNEL32.dll
 0002:00000218       \177KERNEL32_NULL_THUNK_DATA 0000000180011218     kernel32:KERNEL32.dll
 0002:00000220       __imp_?WriteHeapStatsChunk@OutputStream@v8@@UEAA?AW4WriteResult@12@PEAUHeapStatsUpdate@2@H@Z 0000000180011220     node:node.exe
 0002:00000228       __imp_uv_hrtime            0000000180011228     node:node.exe
 0002:00000230       __imp_?GetCurrent@Isolate@v8@@SAPEAV12@XZ 0000000180011230     node:node.exe
 0002:00000238       __imp_?GetHeapProfiler@Isolate@v8@@QEAAPEAVHeapProfiler@2@XZ 0000000180011238     node:node.exe
 0002:00000240       __imp_?GetCurrentContext@Isolate@v8@@QEAA?AV?$Local@VContext@v8@@@2@XZ 0000000180011240     node:node.exe
 0002:00000248       __imp_?New@Integer@v8@@SA?AV?$Local@VInteger@v8@@@2@PEAVIsolate@2@H@Z 0000000180011248     node:node.exe
 0002:00000250       __imp_?Set@Object@v8@@QEAA_NV?$Local@VValue@v8@@@2@0@Z 0000000180011250     node:node.exe
 0002:00000258       __imp_?Delete@HeapSnapshot@v8@@QEAAXXZ 0000000180011258     node:node.exe
 0002:00000260       __imp_?Serialize@HeapSnapshot@v8@@QEBAXPEAVOutputStream@2@W4SerializationFormat@12@@Z 0000000180011260     node:node.exe
 0002:00000268       __imp_??0HandleScope@v8@@QEAA@PEAVIsolate@1@@Z 0000000180011268     node:node.exe
 0002:00000270       __imp_??1HandleScope@v8@@QEAA@XZ 0000000180011270     node:node.exe
 0002:00000278       __imp_?CreateHandle@HandleScope@v8@@KAPEAPEAVObject@internal@2@PEAVIsolate@42@PEAV342@@Z 0000000180011278     node:node.exe
 0002:00000280       __imp_?NewFromUtf8@String@v8@@SA?AV?$Local@VString@v8@@@2@PEAVIsolate@2@PEBDW4NewStringType@12@H@Z 0000000180011280     node:node.exe
 0002:00000288       __imp_??0Utf8Value@String@v8@@QEAA@V?$Local@VValue@v8@@@2@@Z 0000000180011288     node:node.exe
 0002:00000290       __imp_??1Utf8Value@String@v8@@QEAA@XZ 0000000180011290     node:node.exe
 0002:00000298       __imp_?New@FunctionTemplate@v8@@SA?AV?$Local@VFunctionTemplate@v8@@@2@PEAVIsolate@2@P6AXAEBV?$FunctionCallbackInfo@VValue@v8@@@2@@ZV?$Local@VValue@v8@@@2@V?$Local@VSignature@v8@@@2@H@Z 0000000180011298     node:node.exe
 0002:000002a0       __imp_?GetFunction@FunctionTemplate@v8@@QEAA?AV?$Local@VFunction@v8@@@2@XZ 00000001800112a0     node:node.exe
 0002:000002a8       __imp_?TakeHeapSnapshot@HeapProfiler@v8@@QEAAPEBVHeapSnapshot@2@PEAVActivityControl@2@PEAVObjectNameResolver@12@@Z 00000001800112a8     node:node.exe
 0002:000002b0       __imp_?IsFunction@Value@v8@@QEBA_NXZ 00000001800112b0     node:node.exe
 0002:000002b8       __imp_?Int32Value@Value@v8@@QEBAHXZ 00000001800112b8     node:node.exe
 0002:000002c0       __imp_?GlobalizeReference@V8@v8@@CAPEAPEAVObject@internal@2@PEAVIsolate@42@PEAPEAV342@@Z 00000001800112c0     node:node.exe
 0002:000002c8       __imp_?DisposeGlobal@V8@v8@@CAXPEAPEAVObject@internal@2@@Z 00000001800112c8     node:node.exe
 0002:000002d0       __imp_?Global@Context@v8@@QEAA?AV?$Local@VObject@v8@@@2@XZ 00000001800112d0     node:node.exe
 0002:000002d8       __imp_??_7OutputStream@v8@@6B@ 00000001800112d8     node:node.exe
 0002:000002e0       __imp_?MakeCallback@node@@YA?AV?$Local@VValue@v8@@@v8@@PEAVIsolate@3@V?$Local@VObject@v8@@@3@V?$Local@VFunction@v8@@@3@HPEAV23@@Z 00000001800112e0     node:node.exe
 0002:000002e8       __imp_node_module_register 00000001800112e8     node:node.exe
 0002:000002f0       \177node_NULL_THUNK_DATA   00000001800112f0     node:node.exe
 0002:000002f8       __xc_a                     00000001800112f8     LIBCMT:crt0init.obj
 0002:00000318       _register_addon_           0000000180011318     heapdump.obj
 0002:00000320       __xc_z                     0000000180011320     LIBCMT:crt0init.obj
 0002:00000328       __xi_a                     0000000180011328     LIBCMT:crt0init.obj
 0002:00000350       __xi_z                     0000000180011350     LIBCMT:crt0init.obj
 0002:00000358       __xp_a                     0000000180011358     LIBCMT:crt0init.obj
 0002:00000378       __xp_z                     0000000180011378     LIBCMT:crt0init.obj
 0002:00000380       __xt_a                     0000000180011380     LIBCMT:crt0init.obj
 0002:00000388       __xt_z                     0000000180011388     LIBCMT:crt0init.obj
 0002:000003c8       ??_C@_06MEIMCGCF@_hypot?$AA@ 00000001800113c8     LIBCMT:hypot.obj
 0002:000003d0       _pDefaultRawDllMain        00000001800113d0     LIBCMT:dllcrt0.obj
 0002:000003d0       _pRawDllMain               00000001800113d0     LIBCMT:dllcrt0.obj
 0002:000003e8       ??_C@_1BI@BGOHAHKC@?$AAm?$AAs?$AAc?$AAo?$AAr?$AAe?$AAe?$AA?4?$AAd?$AAl?$AAl?$AA?$AA@ 00000001800113e8     LIBCMT:crt0dat.obj
 0002:00000400       ??_C@_0P@MIGLKIOC@CorExitProcess?$AA@ 0000000180011400     LIBCMT:crt0dat.obj
 0002:00000438       _FPinit                    0000000180011438     LIBCMT:fpinit.obj
 0002:00000440       ??_C@_06OJHGLDPL@?$CInull?$CJ?$AA@ 0000000180011440     LIBCMT:output.obj
 0002:00000448       ??_C@_1O@CEDCILHN@?$AA?$CI?$AAn?$AAu?$AAl?$AAl?$AA?$CJ?$AA?$AA@ 0000000180011448     LIBCMT:output.obj
 0002:00000460       __lookuptable              0000000180011460     LIBCMT:output.obj
 0002:000004c0       __lookuptable_s            00000001800114c0     LIBCMT:outputs.obj
 0002:00000520       _XcptActTab                0000000180011520     LIBCMT:winxfltr.obj
 0002:000005e0       _XcptActTabCount           00000001800115e0     LIBCMT:winxfltr.obj
 0002:000005e4       _XcptActTabSize            00000001800115e4     LIBCMT:winxfltr.obj
 0002:000005e8       _First_FPE_Indx            00000001800115e8     LIBCMT:winxfltr.obj
 0002:000005ec       _Num_FPE                   00000001800115ec     LIBCMT:winxfltr.obj
 0002:000005f0       ??_C@_1BK@MGMFAEKH@?$AAk?$AAe?$AAr?$AAn?$AAe?$AAl?$AA3?$AA2?$AA?4?$AAd?$AAl?$AAl?$AA?$AA@ 00000001800115f0     LIBCMT:winapisupp.obj
 0002:00000610       ??_C@_08KNHFBNJ@FlsAlloc?$AA@ 0000000180011610     LIBCMT:winapisupp.obj
 0002:00000620       ??_C@_07PEJMOBNF@FlsFree?$AA@ 0000000180011620     LIBCMT:winapisupp.obj
 0002:00000628       ??_C@_0M@GDNOONDI@FlsGetValue?$AA@ 0000000180011628     LIBCMT:winapisupp.obj
 0002:00000638       ??_C@_0M@JCPCPOEF@FlsSetValue?$AA@ 0000000180011638     LIBCMT:winapisupp.obj
 0002:00000648       ??_C@_0BM@HCFOFFN@InitializeCriticalSectionEx?$AA@ 0000000180011648     LIBCMT:winapisupp.obj
 0002:00000668       ??_C@_0P@DLHPPCNH@CreateEventExW?$AA@ 0000000180011668     LIBCMT:winapisupp.obj
 0002:00000678       ??_C@_0BD@KIEEOEEH@CreateSemaphoreExW?$AA@ 0000000180011678     LIBCMT:winapisupp.obj
 0002:00000690       ??_C@_0BI@BKLFFAPO@SetThreadStackGuarantee?$AA@ 0000000180011690     LIBCMT:winapisupp.obj
 0002:000006a8       ??_C@_0BG@OGFAJCKC@CreateThreadpoolTimer?$AA@ 00000001800116a8     LIBCMT:winapisupp.obj
 0002:000006c0       ??_C@_0BD@LPLEMMDI@SetThreadpoolTimer?$AA@ 00000001800116c0     LIBCMT:winapisupp.obj
 0002:000006d8       ??_C@_0CA@FMNJENH@WaitForThreadpoolTimerCallbacks?$AA@ 00000001800116d8     LIBCMT:winapisupp.obj
 0002:000006f8       ??_C@_0BF@DCFCCNOC@CloseThreadpoolTimer?$AA@ 00000001800116f8     LIBCMT:winapisupp.obj
 0002:00000710       ??_C@_0BF@FLABGKKM@CreateThreadpoolWait?$AA@ 0000000180011710     LIBCMT:winapisupp.obj
 0002:00000728       ??_C@_0BC@MGCOHNA@SetThreadpoolWait?$AA@ 0000000180011728     LIBCMT:winapisupp.obj
 0002:00000740       ??_C@_0BE@OCIOMIMP@CloseThreadpoolWait?$AA@ 0000000180011740     LIBCMT:winapisupp.obj
 0002:00000758       ??_C@_0BJ@LKGHFHBO@FlushProcessWriteBuffers?$AA@ 0000000180011758     LIBCMT:winapisupp.obj
 0002:00000778       ??_C@_0BP@KALKKPMO@FreeLibraryWhenCallbackReturns?$AA@ 0000000180011778     LIBCMT:winapisupp.obj
 0002:00000798       ??_C@_0BK@DFNBACLA@GetCurrentProcessorNumber?$AA@ 0000000180011798     LIBCMT:winapisupp.obj
 0002:000007b8       ??_C@_0BP@KHGALBC@GetLogicalProcessorInformation?$AA@ 00000001800117b8     LIBCMT:winapisupp.obj
 0002:000007d8       ??_C@_0BE@FKKLLFLM@CreateSymbolicLinkW?$AA@ 00000001800117d8     LIBCMT:winapisupp.obj
 0002:000007f0       ??_C@_0BJ@OHNKDLIJ@SetDefaultDllDirectories?$AA@ 00000001800117f0     LIBCMT:winapisupp.obj
 0002:00000810       ??_C@_0BE@LJANKFHF@EnumSystemLocalesEx?$AA@ 0000000180011810     LIBCMT:winapisupp.obj
 0002:00000828       ??_C@_0BA@IHGNDAEB@CompareStringEx?$AA@ 0000000180011828     LIBCMT:winapisupp.obj
 0002:00000838       ??_C@_0BA@EPCJIIPD@GetDateFormatEx?$AA@ 0000000180011838     LIBCMT:winapisupp.obj
 0002:00000848       ??_C@_0BA@ONOKGCMP@GetLocaleInfoEx?$AA@ 0000000180011848     LIBCMT:winapisupp.obj
 0002:00000858       ??_C@_0BA@CIJJKCJJ@GetTimeFormatEx?$AA@ 0000000180011858     LIBCMT:winapisupp.obj
 0002:00000868       ??_C@_0BJ@PBCCBIPI@GetUserDefaultLocaleName?$AA@ 0000000180011868     LIBCMT:winapisupp.obj
 0002:00000888       ??_C@_0BC@CELBKLLA@IsValidLocaleName?$AA@ 0000000180011888     LIBCMT:winapisupp.obj
 0002:000008a0       ??_C@_0O@KKBNKAPF@LCMapStringEx?$AA@ 00000001800118a0     LIBCMT:winapisupp.obj
 0002:000008b0       ??_C@_0BE@JOGNEJCI@GetCurrentPackageId?$AA@ 00000001800118b0     LIBCMT:winapisupp.obj
 0002:000008c8       ??_C@_0P@CDHHOHKP@GetTickCount64?$AA@ 00000001800118c8     LIBCMT:winapisupp.obj
 0002:000008d8       ??_C@_0BO@KPCLFDJJ@GetFileInformationByHandleExW?$AA@ 00000001800118d8     LIBCMT:winapisupp.obj
 0002:000008f8       ??_C@_0BM@MHIDLABK@SetFileInformationByHandleW?$AA@ 00000001800118f8     LIBCMT:winapisupp.obj
 0002:00000a90       ??_C@_1FK@PGACCAFB@?$AAR?$AA6?$AA0?$AA0?$AA2?$AA?$AN?$AA?6?$AA?9?$AA?5?$AAf?$AAl?$AAo?$AAa?$AAt?$AAi?$AAn?$AAg?$AA?5?$AAp?$AAo?$AAi?$AAn?$AAt?$AA?5?$AAs?$AAu?$AAp?$AAp?$AAo?$AAr?$AAt?$AA?5@ 0000000180011a90     LIBCMT:crt0msg.obj
 0002:00000af0       ??_C@_1FE@LLNEDJMD@?$AAR?$AA6?$AA0?$AA0?$AA8?$AA?$AN?$AA?6?$AA?9?$AA?5?$AAn?$AAo?$AAt?$AA?5?$AAe?$AAn?$AAo?$AAu?$AAg?$AAh?$AA?5?$AAs?$AAp?$AAa?$AAc?$AAe?$AA?5?$AAf?$AAo?$AAr?$AA?5?$AAa?$AAr@ 0000000180011af0     LIBCMT:crt0msg.obj
 0002:00000b50       ??_C@_1FI@HONFMGBI@?$AAR?$AA6?$AA0?$AA0?$AA9?$AA?$AN?$AA?6?$AA?9?$AA?5?$AAn?$AAo?$AAt?$AA?5?$AAe?$AAn?$AAo?$AAu?$AAg?$AAh?$AA?5?$AAs?$AAp?$AAa?$AAc?$AAe?$AA?5?$AAf?$AAo?$AAr?$AA?5?$AAe?$AAn@ 0000000180011b50     LIBCMT:crt0msg.obj
 0002:00000bb0       ??_C@_1EG@BEHAGFJD@?$AAR?$AA6?$AA0?$AA1?$AA0?$AA?$AN?$AA?6?$AA?9?$AA?5?$AAa?$AAb?$AAo?$AAr?$AAt?$AA?$CI?$AA?$CJ?$AA?5?$AAh?$AAa?$AAs?$AA?5?$AAb?$AAe?$AAe?$AAn?$AA?5?$AAc?$AAa?$AAl?$AAl?$AAe?$AAd@ 0000000180011bb0     LIBCMT:crt0msg.obj
 0002:00000c00       ??_C@_1FI@LOGNIKDM@?$AAR?$AA6?$AA0?$AA1?$AA6?$AA?$AN?$AA?6?$AA?9?$AA?5?$AAn?$AAo?$AAt?$AA?5?$AAe?$AAn?$AAo?$AAu?$AAg?$AAh?$AA?5?$AAs?$AAp?$AAa?$AAc?$AAe?$AA?5?$AAf?$AAo?$AAr?$AA?5?$AAt?$AAh@ 0000000180011c00     LIBCMT:crt0msg.obj
 0002:00000c60       ??_C@_1FK@BEOGODMC@?$AAR?$AA6?$AA0?$AA1?$AA7?$AA?$AN?$AA?6?$AA?9?$AA?5?$AAu?$AAn?$AAe?$AAx?$AAp?$AAe?$AAc?$AAt?$AAe?$AAd?$AA?5?$AAm?$AAu?$AAl?$AAt?$AAi?$AAt?$AAh?$AAr?$AAe?$AAa?$AAd?$AA?5@ 0000000180011c60     LIBCMT:crt0msg.obj
 0002:00000cc0       ??_C@_1EC@JIBHAOPH@?$AAR?$AA6?$AA0?$AA1?$AA8?$AA?$AN?$AA?6?$AA?9?$AA?5?$AAu?$AAn?$AAe?$AAx?$AAp?$AAe?$AAc?$AAt?$AAe?$AAd?$AA?5?$AAh?$AAe?$AAa?$AAp?$AA?5?$AAe?$AAr?$AAr?$AAo?$AAr?$AA?$AN?$AA?6@ 0000000180011cc0     LIBCMT:crt0msg.obj
 0002:00000d10       ??_C@_1FC@ECHBIFBC@?$AAR?$AA6?$AA0?$AA1?$AA9?$AA?$AN?$AA?6?$AA?9?$AA?5?$AAu?$AAn?$AAa?$AAb?$AAl?$AAe?$AA?5?$AAt?$AAo?$AA?5?$AAo?$AAp?$AAe?$AAn?$AA?5?$AAc?$AAo?$AAn?$AAs?$AAo?$AAl?$AAe?$AA?5@ 0000000180011d10     LIBCMT:crt0msg.obj
 0002:00000d70       ??_C@_1GK@FHCKBEFA@?$AAR?$AA6?$AA0?$AA2?$AA4?$AA?$AN?$AA?6?$AA?9?$AA?5?$AAn?$AAo?$AAt?$AA?5?$AAe?$AAn?$AAo?$AAu?$AAg?$AAh?$AA?5?$AAs?$AAp?$AAa?$AAc?$AAe?$AA?5?$AAf?$AAo?$AAr?$AA?5?$AA_?$AAo@ 0000000180011d70     LIBCMT:crt0msg.obj
 0002:00000de0       ??_C@_1EM@MAADIHMB@?$AAR?$AA6?$AA0?$AA2?$AA5?$AA?$AN?$AA?6?$AA?9?$AA?5?$AAp?$AAu?$AAr?$AAe?$AA?5?$AAv?$AAi?$AAr?$AAt?$AAu?$AAa?$AAl?$AA?5?$AAf?$AAu?$AAn?$AAc?$AAt?$AAi?$AAo?$AAn?$AA?5?$AAc@ 0000000180011de0     LIBCMT:crt0msg.obj
 0002:00000e30       ??_C@_1GK@MCAAGJMO@?$AAR?$AA6?$AA0?$AA2?$AA6?$AA?$AN?$AA?6?$AA?9?$AA?5?$AAn?$AAo?$AAt?$AA?5?$AAe?$AAn?$AAo?$AAu?$AAg?$AAh?$AA?5?$AAs?$AAp?$AAa?$AAc?$AAe?$AA?5?$AAf?$AAo?$AAr?$AA?5?$AAs?$AAt@ 0000000180011e30     LIBCMT:crt0msg.obj
 0002:00000ea0       ??_C@_1GK@MFGOKLAG@?$AAR?$AA6?$AA0?$AA2?$AA7?$AA?$AN?$AA?6?$AA?9?$AA?5?$AAn?$AAo?$AAt?$AA?5?$AAe?$AAn?$AAo?$AAu?$AAg?$AAh?$AA?5?$AAs?$AAp?$AAa?$AAc?$AAe?$AA?5?$AAf?$AAo?$AAr?$AA?5?$AAl?$AAo@ 0000000180011ea0     LIBCMT:crt0msg.obj
 0002:00000f10       ??_C@_1EK@HHFLMAOL@?$AAR?$AA6?$AA0?$AA2?$AA8?$AA?$AN?$AA?6?$AA?9?$AA?5?$AAu?$AAn?$AAa?$AAb?$AAl?$AAe?$AA?5?$AAt?$AAo?$AA?5?$AAi?$AAn?$AAi?$AAt?$AAi?$AAa?$AAl?$AAi?$AAz?$AAe?$AA?5?$AAh?$AAe@ 0000000180011f10     LIBCMT:crt0msg.obj
 0002:00000f60       ??_C@_1DO@BMFCDCD@?$AAR?$AA6?$AA0?$AA3?$AA0?$AA?$AN?$AA?6?$AA?9?$AA?5?$AAC?$AAR?$AAT?$AA?5?$AAn?$AAo?$AAt?$AA?5?$AAi?$AAn?$AAi?$AAt?$AAi?$AAa?$AAl?$AAi?$AAz?$AAe?$AAd?$AA?$AN?$AA?6?$AA?$AA@ 0000000180011f60     LIBCMT:crt0msg.obj
 0002:00000fa0       ??_C@_1MG@ENCOOIDF@?$AAR?$AA6?$AA0?$AA3?$AA1?$AA?$AN?$AA?6?$AA?9?$AA?5?$AAA?$AAt?$AAt?$AAe?$AAm?$AAp?$AAt?$AA?5?$AAt?$AAo?$AA?5?$AAi?$AAn?$AAi?$AAt?$AAi?$AAa?$AAl?$AAi?$AAz?$AAe?$AA?5?$AAt@ 0000000180011fa0     LIBCMT:crt0msg.obj
 0002:00001070       ??_C@_1GG@GOPILAJP@?$AAR?$AA6?$AA0?$AA3?$AA2?$AA?$AN?$AA?6?$AA?9?$AA?5?$AAn?$AAo?$AAt?$AA?5?$AAe?$AAn?$AAo?$AAu?$AAg?$AAh?$AA?5?$AAs?$AAp?$AAa?$AAc?$AAe?$AA?5?$AAf?$AAo?$AAr?$AA?5?$AAl?$AAo@ 0000000180012070     LIBCMT:crt0msg.obj
 0002:000010e0       ??_C@_1BOO@KGEDBGAJ@?$AAR?$AA6?$AA0?$AA3?$AA3?$AA?$AN?$AA?6?$AA?9?$AA?5?$AAA?$AAt?$AAt?$AAe?$AAm?$AAp?$AAt?$AA?5?$AAt?$AAo?$AA?5?$AAu?$AAs?$AAe?$AA?5?$AAM?$AAS?$AAI?$AAL?$AA?5?$AAc?$AAo?$AAd@ 00000001800120e0     LIBCMT:crt0msg.obj
 0002:000012d0       ??_C@_1GG@MKFPEKFO@?$AAR?$AA6?$AA0?$AA3?$AA4?$AA?$AN?$AA?6?$AA?9?$AA?5?$AAi?$AAn?$AAc?$AAo?$AAn?$AAs?$AAi?$AAs?$AAt?$AAe?$AAn?$AAt?$AA?5?$AAo?$AAn?$AAe?$AAx?$AAi?$AAt?$AA?5?$AAb?$AAe?$AAg@ 00000001800122d0     LIBCMT:crt0msg.obj
 0002:00001338       ??_C@_1BO@BFCDCGC@?$AAD?$AAO?$AAM?$AAA?$AAI?$AAN?$AA?5?$AAe?$AAr?$AAr?$AAo?$AAr?$AA?$AN?$AA?6?$AA?$AA@ 0000000180012338     LIBCMT:crt0msg.obj
 0002:00001358       ??_C@_1BK@KMOMNAAI@?$AAS?$AAI?$AAN?$AAG?$AA?5?$AAe?$AAr?$AAr?$AAo?$AAr?$AA?$AN?$AA?6?$AA?$AA@ 0000000180012358     LIBCMT:crt0msg.obj
 0002:00001378       ??_C@_1BM@JBBEPPHI@?$AAT?$AAL?$AAO?$AAS?$AAS?$AA?5?$AAe?$AAr?$AAr?$AAo?$AAr?$AA?$AN?$AA?6?$AA?$AA@ 0000000180012378     LIBCMT:crt0msg.obj
 0002:00001394       ??_C@_15JNBOKNOG@?$AA?$AN?$AA?6?$AA?$AA@ 0000000180012394     LIBCMT:crt0msg.obj
 0002:000013a0       ??_C@_1BO@BKOMIGKJ@?$AAr?$AAu?$AAn?$AAt?$AAi?$AAm?$AAe?$AA?5?$AAe?$AAr?$AAr?$AAo?$AAr?$AA?5?$AA?$AA@ 00000001800123a0     LIBCMT:crt0msg.obj
 0002:000013c0       ??_C@_1DE@JNGNBFGO@?$AAR?$AAu?$AAn?$AAt?$AAi?$AAm?$AAe?$AA?5?$AAE?$AAr?$AAr?$AAo?$AAr?$AA?$CB?$AA?6?$AA?6?$AAP?$AAr?$AAo?$AAg?$AAr?$AAa?$AAm?$AA?3?$AA?5?$AA?$AA@ 00000001800123c0     LIBCMT:crt0msg.obj
 0002:000013f8       ??_C@_1CO@EAEJAADC@?$AA?$DM?$AAp?$AAr?$AAo?$AAg?$AAr?$AAa?$AAm?$AA?5?$AAn?$AAa?$AAm?$AAe?$AA?5?$AAu?$AAn?$AAk?$AAn?$AAo?$AAw?$AAn?$AA?$DO?$AA?$AA@ 00000001800123f8     LIBCMT:crt0msg.obj
 0002:00001428       ??_C@_17LGKOMLJ@?$AA?4?$AA?4?$AA?4?$AA?$AA@ 0000000180012428     LIBCMT:crt0msg.obj
 0002:00001430       ??_C@_15IABLJNFO@?$AA?6?$AA?6?$AA?$AA@ 0000000180012430     LIBCMT:crt0msg.obj
 0002:00001440       ??_C@_1EK@MBDPDCGA@?$AAM?$AAi?$AAc?$AAr?$AAo?$AAs?$AAo?$AAf?$AAt?$AA?5?$AAV?$AAi?$AAs?$AAu?$AAa?$AAl?$AA?5?$AAC?$AA?$CL?$AA?$CL?$AA?5?$AAR?$AAu?$AAn?$AAt?$AAi?$AAm?$AAe?$AA?5?$AAL?$AAi?$AAb@ 0000000180012440     LIBCMT:crt0msg.obj
 0002:000014b0       ??_C@_1M@HPNHIDJI@?$AAj?$AAa?$AA?9?$AAJ?$AAP?$AA?$AA@ 00000001800124b0     LIBCMT:mbctype.obj
 0002:000014c0       ??_C@_1M@BIBDDEMK@?$AAz?$AAh?$AA?9?$AAC?$AAN?$AA?$AA@ 00000001800124c0     LIBCMT:mbctype.obj
 0002:000014d0       ??_C@_1M@JLOOOEGK@?$AAk?$AAo?$AA?9?$AAK?$AAR?$AA?$AA@ 00000001800124d0     LIBCMT:mbctype.obj
 0002:000014e0       ??_C@_1M@CLNBBOPM@?$AAz?$AAh?$AA?9?$AAT?$AAW?$AA?$AA@ 00000001800124e0     LIBCMT:mbctype.obj
 0002:00001500       ??_C@_03KHJOGHMM@exp?$AA@  0000000180012500     LIBCMT:fpexcept.obj
 0002:00001504       ??_C@_03JGHBODFD@pow?$AA@  0000000180012504     LIBCMT:fpexcept.obj
 0002:00001508       ??_C@_03MGHMBJCF@log?$AA@  0000000180012508     LIBCMT:fpexcept.obj
 0002:0000150c       ??_C@_05HGHHAHAP@log10?$AA@ 000000018001250c     LIBCMT:fpexcept.obj
 0002:00001514       ??_C@_04COOMCNPB@sinh?$AA@ 0000000180012514     LIBCMT:fpexcept.obj
 0002:0000151c       ??_C@_04HPJJNFIM@cosh?$AA@ 000000018001251c     LIBCMT:fpexcept.obj
 0002:00001524       ??_C@_04FJHINJAO@tanh?$AA@ 0000000180012524     LIBCMT:fpexcept.obj
 0002:0000152c       ??_C@_04FIHNOPOL@asin?$AA@ 000000018001252c     LIBCMT:fpexcept.obj
 0002:00001534       ??_C@_04PDIFKINK@acos?$AA@ 0000000180012534     LIBCMT:fpexcept.obj
 0002:0000153c       ??_C@_04MLLJIGOK@atan?$AA@ 000000018001253c     LIBCMT:fpexcept.obj
 0002:00001544       ??_C@_05KNGEOGJB@atan2?$AA@ 0000000180012544     LIBCMT:fpexcept.obj
 0002:0000154c       ??_C@_04EIAKFFMI@sqrt?$AA@ 000000018001254c     LIBCMT:fpexcept.obj
 0002:00001554       ??_C@_03BLEJJJBH@sin?$AA@  0000000180012554     LIBCMT:fpexcept.obj
 0002:00001558       ??_C@_03LALBNOCG@cos?$AA@  0000000180012558     LIBCMT:fpexcept.obj
 0002:0000155c       ??_C@_03IIINPABG@tan?$AA@  000000018001255c     LIBCMT:fpexcept.obj
 0002:00001560       ??_C@_04GFPJNGEK@ceil?$AA@ 0000000180012560     LIBCMT:fpexcept.obj
 0002:00001568       ??_C@_05PBJFFIGL@floor?$AA@ 0000000180012568     LIBCMT:fpexcept.obj
 0002:00001570       ??_C@_04ODHECPBC@fabs?$AA@ 0000000180012570     LIBCMT:fpexcept.obj
 0002:00001578       ??_C@_04EHEDPDJG@modf?$AA@ 0000000180012578     LIBCMT:fpexcept.obj
 0002:00001580       ??_C@_05CEJMAHNP@ldexp?$AA@ 0000000180012580     LIBCMT:fpexcept.obj
 0002:00001588       ??_C@_05KBKMEMPO@_cabs?$AA@ 0000000180012588     LIBCMT:fpexcept.obj
 0002:00001590       ??_C@_04KEPJIHGP@fmod?$AA@ 0000000180012590     LIBCMT:fpexcept.obj
 0002:00001598       ??_C@_05GKKHEGJL@frexp?$AA@ 0000000180012598     LIBCMT:fpexcept.obj
 0002:000015a0       ??_C@_03MJLDFKDL@_y0?$AA@  00000001800125a0     LIBCMT:fpexcept.obj
 0002:000015a4       ??_C@_03NAKIGLHK@_y1?$AA@  00000001800125a4     LIBCMT:fpexcept.obj
 0002:000015a8       ??_C@_03ONILCKOB@_yn?$AA@  00000001800125a8     LIBCMT:fpexcept.obj
 0002:000015ac       ??_C@_05JGDBENOH@_logb?$AA@ 00000001800125ac     LIBCMT:fpexcept.obj
 0002:000015b8       ??_C@_0L@KDOEJCKC@_nextafter?$AA@ 00000001800125b8     LIBCMT:fpexcept.obj
 0002:000015c8       __real@0000000000000000    00000001800125c8     LIBCMT:fpexcept.obj
 0002:000015d0       ??_C@_05KLBDPFGC@e?$CL000?$AA@ 00000001800125d0     LIBCMT:cvt.obj
 0002:000015d8       ??_C@_03KOEHGMDN@Sun?$AA@  00000001800125d8     LIBCMT:nlsdata.obj
 0002:000015dc       ??_C@_03PDAGKDH@Mon?$AA@   00000001800125dc     LIBCMT:nlsdata.obj
 0002:000015e0       ??_C@_03NAGEINEP@Tue?$AA@  00000001800125e0     LIBCMT:nlsdata.obj
 0002:000015e4       ??_C@_03MHOMLAJA@Wed?$AA@  00000001800125e4     LIBCMT:nlsdata.obj
 0002:000015e8       ??_C@_03IOFIKPDN@Thu?$AA@  00000001800125e8     LIBCMT:nlsdata.obj
 0002:000015ec       ??_C@_03IDIOELNC@Fri?$AA@  00000001800125ec     LIBCMT:nlsdata.obj
 0002:000015f0       ??_C@_03FEFJNEK@Sat?$AA@   00000001800125f0     LIBCMT:nlsdata.obj
 0002:000015f4       ??_C@_06OOPIFAJ@Sunday?$AA@ 00000001800125f4     LIBCMT:nlsdata.obj
 0002:000015fc       ??_C@_06JLEDEDGH@Monday?$AA@ 00000001800125fc     LIBCMT:nlsdata.obj
 0002:00001608       ??_C@_07BAAGCFCM@Tuesday?$AA@ 0000000180012608     LIBCMT:nlsdata.obj
 0002:00001610       ??_C@_09DLIGFAKA@Wednesday?$AA@ 0000000180012610     LIBCMT:nlsdata.obj
 0002:00001620       ??_C@_08HACCIKIA@Thursday?$AA@ 0000000180012620     LIBCMT:nlsdata.obj
 0002:0000162c       ??_C@_06JECMNKMI@Friday?$AA@ 000000018001262c     LIBCMT:nlsdata.obj
 0002:00001638       ??_C@_08INBOOONO@Saturday?$AA@ 0000000180012638     LIBCMT:nlsdata.obj
 0002:00001644       ??_C@_03JIHJHPIE@Jan?$AA@  0000000180012644     LIBCMT:nlsdata.obj
 0002:00001648       ??_C@_03HJBDCHOM@Feb?$AA@  0000000180012648     LIBCMT:nlsdata.obj
 0002:0000164c       ??_C@_03ODNJBKGA@Mar?$AA@  000000018001264c     LIBCMT:nlsdata.obj
 0002:00001650       ??_C@_03LEOLGMJP@Apr?$AA@  0000000180012650     LIBCMT:nlsdata.obj
 0002:00001654       ??_C@_03CNMDKL@May?$AA@    0000000180012654     LIBCMT:nlsdata.obj
 0002:00001658       ??_C@_03IDFGHECI@Jun?$AA@  0000000180012658     LIBCMT:nlsdata.obj
 0002:0000165c       ??_C@_03LBGABGKK@Jul?$AA@  000000018001265c     LIBCMT:nlsdata.obj
 0002:00001660       ??_C@_03IFJFEIGA@Aug?$AA@  0000000180012660     LIBCMT:nlsdata.obj
 0002:00001664       ??_C@_03GGCAPAJC@Sep?$AA@  0000000180012664     LIBCMT:nlsdata.obj
 0002:00001668       ??_C@_03BMAOKBAD@Oct?$AA@  0000000180012668     LIBCMT:nlsdata.obj
 0002:0000166c       ??_C@_03JPJOFNIA@Nov?$AA@  000000018001266c     LIBCMT:nlsdata.obj
 0002:00001670       ??_C@_03MKABNOCG@Dec?$AA@  0000000180012670     LIBCMT:nlsdata.obj
 0002:00001678       ??_C@_07CGJPFGJA@January?$AA@ 0000000180012678     LIBCMT:nlsdata.obj
 0002:00001680       ??_C@_08GNJGEPFN@February?$AA@ 0000000180012680     LIBCMT:nlsdata.obj
 0002:0000168c       ??_C@_05HPCKOFNC@March?$AA@ 000000018001268c     LIBCMT:nlsdata.obj
 0002:00001694       ??_C@_05DMJDNLEJ@April?$AA@ 0000000180012694     LIBCMT:nlsdata.obj
 0002:0000169c       ??_C@_04CNLMGBGM@June?$AA@ 000000018001269c     LIBCMT:nlsdata.obj
 0002:000016a4       ??_C@_04MIEPOIFP@July?$AA@ 00000001800126a4     LIBCMT:nlsdata.obj
 0002:000016ac       ??_C@_06LBBHFDDG@August?$AA@ 00000001800126ac     LIBCMT:nlsdata.obj
 0002:000016b8       ??_C@_09BHHEALKD@September?$AA@ 00000001800126b8     LIBCMT:nlsdata.obj
 0002:000016c8       ??_C@_07JJNFCEND@October?$AA@ 00000001800126c8     LIBCMT:nlsdata.obj
 0002:000016d0       ??_C@_08HCHEGEOA@November?$AA@ 00000001800126d0     LIBCMT:nlsdata.obj
 0002:000016e0       ??_C@_08EDHMEBNP@December?$AA@ 00000001800126e0     LIBCMT:nlsdata.obj
 0002:000016ec       ??_C@_02DEDBPAFC@AM?$AA@   00000001800126ec     LIBCMT:nlsdata.obj
 0002:000016f0       ??_C@_02CJNFDJBF@PM?$AA@   00000001800126f0     LIBCMT:nlsdata.obj
 0002:000016f8       ??_C@_08BPBNCDIB@MM?1dd?1yy?$AA@ 00000001800126f8     LIBCMT:nlsdata.obj
 0002:00001708       ??_C@_0BE@CKGJFCPC@dddd?0?5MMMM?5dd?0?5yyyy?$AA@ 0000000180012708     LIBCMT:nlsdata.obj
 0002:00001720       ??_C@_08JCCMCCIL@HH?3mm?3ss?$AA@ 0000000180012720     LIBCMT:nlsdata.obj
 0002:00001730       ??_C@_17MBGCMIPB@?$AAS?$AAu?$AAn?$AA?$AA@ 0000000180012730     LIBCMT:nlsdata.obj
 0002:00001738       ??_C@_17KBOMKBF@?$AAM?$AAo?$AAn?$AA?$AA@ 0000000180012738     LIBCMT:nlsdata.obj
 0002:00001740       ??_C@_17BMKGEGOJ@?$AAT?$AAu?$AAe?$AA?$AA@ 0000000180012740     LIBCMT:nlsdata.obj
 0002:00001748       ??_C@_17CJEDCEPE@?$AAW?$AAe?$AAd?$AA?$AA@ 0000000180012748     LIBCMT:nlsdata.obj
 0002:00001750       ??_C@_17PDPHAADD@?$AAT?$AAh?$AAu?$AA?$AA@ 0000000180012750     LIBCMT:nlsdata.obj
 0002:00001758       ??_C@_17HFOLPPLP@?$AAF?$AAr?$AAi?$AA?$AA@ 0000000180012758     LIBCMT:nlsdata.obj
 0002:00001760       ??_C@_17GGIBDPIH@?$AAS?$AAa?$AAt?$AA?$AA@ 0000000180012760     LIBCMT:nlsdata.obj
 0002:00001768       ??_C@_1O@IHNHDHPB@?$AAS?$AAu?$AAn?$AAd?$AAa?$AAy?$AA?$AA@ 0000000180012768     LIBCMT:nlsdata.obj
 0002:00001778       ??_C@_1O@MMNBFLIA@?$AAM?$AAo?$AAn?$AAd?$AAa?$AAy?$AA?$AA@ 0000000180012778     LIBCMT:nlsdata.obj
 0002:00001788       ??_C@_1BA@ENFBFFEK@?$AAT?$AAu?$AAe?$AAs?$AAd?$AAa?$AAy?$AA?$AA@ 0000000180012788     LIBCMT:nlsdata.obj
 0002:00001798       ??_C@_1BE@EBOGMDOH@?$AAW?$AAe?$AAd?$AAn?$AAe?$AAs?$AAd?$AAa?$AAy?$AA?$AA@ 0000000180012798     LIBCMT:nlsdata.obj
 0002:000017b0       ??_C@_1BC@HHMNLIHE@?$AAT?$AAh?$AAu?$AAr?$AAs?$AAd?$AAa?$AAy?$AA?$AA@ 00000001800127b0     LIBCMT:nlsdata.obj
 0002:000017c8       ??_C@_1O@PDICJHAG@?$AAF?$AAr?$AAi?$AAd?$AAa?$AAy?$AA?$AA@ 00000001800127c8     LIBCMT:nlsdata.obj
 0002:000017d8       ??_C@_1BC@ENMNNPAJ@?$AAS?$AAa?$AAt?$AAu?$AAr?$AAd?$AAa?$AAy?$AA?$AA@ 00000001800127d8     LIBCMT:nlsdata.obj
 0002:000017f0       ??_C@_17DKNBKCHM@?$AAJ?$AAa?$AAn?$AA?$AA@ 00000001800127f0     LIBCMT:nlsdata.obj
 0002:000017f8       ??_C@_17LMDJEKJN@?$AAF?$AAe?$AAb?$AA?$AA@ 00000001800127f8     LIBCMT:nlsdata.obj
 0002:00001800       ??_C@_17CKNLEDEC@?$AAM?$AAa?$AAr?$AA?$AA@ 0000000180012800     LIBCMT:nlsdata.obj
 0002:00001808       ??_C@_17LFPOIHDD@?$AAA?$AAp?$AAr?$AA?$AA@ 0000000180012808     LIBCMT:nlsdata.obj
 0002:00001810       ??_C@_17PNNKMEED@?$AAM?$AAa?$AAy?$AA?$AA@ 0000000180012810     LIBCMT:nlsdata.obj
 0002:00001818       ??_C@_17KCJGOCPB@?$AAJ?$AAu?$AAn?$AA?$AA@ 0000000180012818     LIBCMT:nlsdata.obj
 0002:00001820       ??_C@_17IJPCKHK@?$AAJ?$AAu?$AAl?$AA?$AA@ 0000000180012820     LIBCMT:nlsdata.obj
 0002:00001828       ??_C@_17ICPELBCN@?$AAA?$AAu?$AAg?$AA?$AA@ 0000000180012828     LIBCMT:nlsdata.obj
 0002:00001830       ??_C@_17HCHCOKMG@?$AAS?$AAe?$AAp?$AA?$AA@ 0000000180012830     LIBCMT:nlsdata.obj
 0002:00001838       ??_C@_17FNLKOI@?$AAO?$AAc?$AAt?$AA?$AA@ 0000000180012838     LIBCMT:nlsdata.obj
 0002:00001840       ??_C@_17BBDMLCIG@?$AAN?$AAo?$AAv?$AA?$AA@ 0000000180012840     LIBCMT:nlsdata.obj
 0002:00001848       ??_C@_17EGKACKIF@?$AAD?$AAe?$AAc?$AA?$AA@ 0000000180012848     LIBCMT:nlsdata.obj
 0002:00001850       ??_C@_1BA@EFMEIEBA@?$AAJ?$AAa?$AAn?$AAu?$AAa?$AAr?$AAy?$AA?$AA@ 0000000180012850     LIBCMT:nlsdata.obj
 0002:00001860       ??_C@_1BC@JGDDFFAM@?$AAF?$AAe?$AAb?$AAr?$AAu?$AAa?$AAr?$AAy?$AA?$AA@ 0000000180012860     LIBCMT:nlsdata.obj
 0002:00001878       ??_C@_1M@IKEENEDF@?$AAM?$AAa?$AAr?$AAc?$AAh?$AA?$AA@ 0000000180012878     LIBCMT:nlsdata.obj
 0002:00001888       ??_C@_1M@GJNLMHFD@?$AAA?$AAp?$AAr?$AAi?$AAl?$AA?$AA@ 0000000180012888     LIBCMT:nlsdata.obj
 0002:00001898       ??_C@_19EPFLPGAP@?$AAJ?$AAu?$AAn?$AAe?$AA?$AA@ 0000000180012898     LIBCMT:nlsdata.obj
 0002:000018a8       ??_C@_19BIFMLPCD@?$AAJ?$AAu?$AAl?$AAy?$AA?$AA@ 00000001800128a8     LIBCMT:nlsdata.obj
 0002:000018b8       ??_C@_1O@PAHLKOAC@?$AAA?$AAu?$AAg?$AAu?$AAs?$AAt?$AA?$AA@ 00000001800128b8     LIBCMT:nlsdata.obj
 0002:000018c8       ??_C@_1BE@DKAAMBJL@?$AAS?$AAe?$AAp?$AAt?$AAe?$AAm?$AAb?$AAe?$AAr?$AA?$AA@ 00000001800128c8     LIBCMT:nlsdata.obj
 0002:000018e0       ??_C@_1BA@EPANDLNG@?$AAO?$AAc?$AAt?$AAo?$AAb?$AAe?$AAr?$AA?$AA@ 00000001800128e0     LIBCMT:nlsdata.obj
 0002:000018f0       ??_C@_1BC@BGLIFPF@?$AAN?$AAo?$AAv?$AAe?$AAm?$AAb?$AAe?$AAr?$AA?$AA@ 00000001800128f0     LIBCMT:nlsdata.obj
 0002:00001908       ??_C@_1BC@FEMKIFH@?$AAD?$AAe?$AAc?$AAe?$AAm?$AAb?$AAe?$AAr?$AA?$AA@ 0000000180012908     LIBCMT:nlsdata.obj
 0002:0000191c       ??_C@_15ODEHAHHF@?$AAA?$AAM?$AA?$AA@ 000000018001291c     LIBCMT:nlsdata.obj
 0002:00001924       ??_C@_15CLMNNGEL@?$AAP?$AAM?$AA?$AA@ 0000000180012924     LIBCMT:nlsdata.obj
 0002:00001930       ??_C@_1BC@IEBCMHCM@?$AAM?$AAM?$AA?1?$AAd?$AAd?$AA?1?$AAy?$AAy?$AA?$AA@ 0000000180012930     LIBCMT:nlsdata.obj
 0002:00001948       ??_C@_1CI@KNAKOEBC@?$AAd?$AAd?$AAd?$AAd?$AA?0?$AA?5?$AAM?$AAM?$AAM?$AAM?$AA?5?$AAd?$AAd?$AA?0?$AA?5?$AAy?$AAy?$AAy?$AAy?$AA?$AA@ 0000000180012948     LIBCMT:nlsdata.obj
 0002:00001970       ??_C@_1BC@GDGBMEMK@?$AAH?$AAH?$AA?3?$AAm?$AAm?$AA?3?$AAs?$AAs?$AA?$AA@ 0000000180012970     LIBCMT:nlsdata.obj
 0002:00001988       ??_C@_1M@BMHNFIME@?$AAe?$AAn?$AA?9?$AAU?$AAS?$AA?$AA@ 0000000180012988     LIBCMT:nlsdata.obj
 0002:00001998       ??_C@_1BG@GOEBHBDC@?$AAU?$AAS?$AAE?$AAR?$AA3?$AA2?$AA?4?$AAD?$AAL?$AAL?$AA?$AA@ 0000000180012998     LIBCMT:crtmboxw.obj
 0002:000019b0       ??_C@_0M@DLDCCGNP@MessageBoxW?$AA@ 00000001800129b0     LIBCMT:crtmboxw.obj
 0002:000019c0       ??_C@_0BA@HNOPNCHB@GetActiveWindow?$AA@ 00000001800129c0     LIBCMT:crtmboxw.obj
 0002:000019d0       ??_C@_0BD@HHGDFDBJ@GetLastActivePopup?$AA@ 00000001800129d0     LIBCMT:crtmboxw.obj
 0002:000019e8       ??_C@_0BK@DEKFELLI@GetUserObjectInformationW?$AA@ 00000001800129e8     LIBCMT:crtmboxw.obj
 0002:00001a08       ??_C@_0BI@DFKBFLJE@GetProcessWindowStation?$AA@ 0000000180012a08     LIBCMT:crtmboxw.obj
 0002:00001a20       LcidToLocaleNameTable      0000000180012a20     LIBCMT:winapinls.obj
 0002:00002860       LocaleNameToIndexTable     0000000180013860     LIBCMT:winapinls.obj
 0002:000036a0       ??_C@_15EMKDOKLE@?$AAa?$AAr?$AA?$AA@ 00000001800146a0     LIBCMT:winapinls.obj
 0002:000036a8       ??_C@_15KNPADPLH@?$AAb?$AAg?$AA?$AA@ 00000001800146a8     LIBCMT:winapinls.obj
 0002:000036b0       ??_C@_15EDMHLDMO@?$AAc?$AAa?$AA?$AA@ 00000001800146b0     LIBCMT:winapinls.obj
 0002:000036b8       ??_C@_1O@BPEAJADD@?$AAz?$AAh?$AA?9?$AAC?$AAH?$AAS?$AA?$AA@ 00000001800146b8     LIBCMT:winapinls.obj
 0002:000036c8       ??_C@_15LJNHCMNK@?$AAc?$AAs?$AA?$AA@ 00000001800146c8     LIBCMT:winapinls.obj
 0002:000036d0       ??_C@_15FOMCIDHG@?$AAd?$AAa?$AA?$AA@ 00000001800146d0     LIBCMT:winapinls.obj
 0002:000036d8       ??_C@_15NBKABECB@?$AAd?$AAe?$AA?$AA@ 00000001800146d8     LIBCMT:winapinls.obj
 0002:000036e0       ??_C@_15GHPEIIAO@?$AAe?$AAl?$AA?$AA@ 00000001800146e0     LIBCMT:winapinls.obj
 0002:000036e8       ??_C@_15MNPNEAIF@?$AAe?$AAn?$AA?$AA@ 00000001800146e8     LIBCMT:winapinls.obj
 0002:000036f0       ??_C@_15GPIOMPMH@?$AAe?$AAs?$AA?$AA@ 00000001800146f0     LIBCMT:winapinls.obj
 0002:000036f8       ??_C@_15NGLOAKJC@?$AAf?$AAi?$AA?$AA@ 00000001800146f8     LIBCMT:winapinls.obj
 0002:00003700       ??_C@_15FBKGNKAM@?$AAf?$AAr?$AA?$AA@ 0000000180014700     LIBCMT:winapinls.obj
 0002:00003708       ??_C@_15KGGCNEFK@?$AAh?$AAe?$AA?$AA@ 0000000180014708     LIBCMT:winapinls.obj
 0002:00003710       ??_C@_15PGHLIDMF@?$AAh?$AAu?$AA?$AA@ 0000000180014710     LIBCMT:winapinls.obj
 0002:00003718       ??_C@_15BIEMAPLM@?$AAi?$AAs?$AA?$AA@ 0000000180014718     LIBCMT:winapinls.obj
 0002:00003720       ??_C@_15IFJLDHAF@?$AAi?$AAt?$AA?$AA@ 0000000180014720     LIBCMT:winapinls.obj
 0002:00003728       ??_C@_15GEMIOCAG@?$AAj?$AAa?$AA?$AA@ 0000000180014728     LIBCMT:winapinls.obj
 0002:00003730       ??_C@_15EPELEGJA@?$AAk?$AAo?$AA?$AA@ 0000000180014730     LIBCMT:winapinls.obj
 0002:00003738       ??_C@_15NDDHIMN@?$AAn?$AAl?$AA?$AA@ 0000000180014738     LIBCMT:winapinls.obj
 0002:00003740       ??_C@_15BPIGNHCD@?$AAn?$AAo?$AA?$AA@ 0000000180014740     LIBCMT:winapinls.obj
 0002:00003748       ??_C@_15DEOPBLCG@?$AAp?$AAl?$AA?$AA@ 0000000180014748     LIBCMT:winapinls.obj
 0002:00003750       ??_C@_15KBECGEFG@?$AAp?$AAt?$AA?$AA@ 0000000180014750     LIBCMT:winapinls.obj
 0002:00003758       ??_C@_15GLJCBFMD@?$AAr?$AAo?$AA?$AA@ 0000000180014758     LIBCMT:winapinls.obj
 0002:00003760       ??_C@_15FEDGKCDI@?$AAr?$AAu?$AA?$AA@ 0000000180014760     LIBCMT:winapinls.obj
 0002:00003768       ??_C@_15GLKMLLHM@?$AAh?$AAr?$AA?$AA@ 0000000180014768     LIBCMT:winapinls.obj
 0002:00003770       ??_C@_15CPKMFBDB@?$AAs?$AAk?$AA?$AA@ 0000000180014770     LIBCMT:winapinls.obj
 0002:00003778       ??_C@_15BAAIOGMK@?$AAs?$AAq?$AA?$AA@ 0000000180014778     LIBCMT:winapinls.obj
 0002:00003780       ??_C@_15INNPNOHD@?$AAs?$AAv?$AA?$AA@ 0000000180014780     LIBCMT:winapinls.obj
 0002:00003788       ??_C@_15CABMMOGH@?$AAt?$AAh?$AA?$AA@ 0000000180014788     LIBCMT:winapinls.obj
 0002:00003790       ??_C@_15BPLIHJJM@?$AAt?$AAr?$AA?$AA@ 0000000180014790     LIBCMT:winapinls.obj
 0002:00003798       ??_C@_15NEOEKKDJ@?$AAu?$AAr?$AA?$AA@ 0000000180014798     LIBCMT:winapinls.obj
 0002:000037a0       ??_C@_15NFICGAJK@?$AAi?$AAd?$AA?$AA@ 00000001800147a0     LIBCMT:winapinls.obj
 0002:000037a8       ??_C@_15PJPFLCCM@?$AAu?$AAk?$AA?$AA@ 00000001800147a8     LIBCMT:winapinls.obj
 0002:000037b0       ??_C@_15HPJPHDM@?$AAb?$AAe?$AA?$AA@ 00000001800147b0     LIBCMT:winapinls.obj
 0002:000037b8       ??_C@_15LCHLGJII@?$AAs?$AAl?$AA?$AA@ 00000001800147b8     LIBCMT:winapinls.obj
 0002:000037c0       ??_C@_15PCFJPHHO@?$AAe?$AAt?$AA?$AA@ 00000001800147c0     LIBCMT:winapinls.obj
 0002:000037c8       ??_C@_15HPFPGODN@?$AAl?$AAv?$AA?$AA@ 00000001800147c8     LIBCMT:winapinls.obj
 0002:000037d0       ??_C@_15NFFGKGLG@?$AAl?$AAt?$AA?$AA@ 00000001800147d0     LIBCMT:winapinls.obj
 0002:000037d8       ??_C@_15BDAKCCHN@?$AAf?$AAa?$AA?$AA@ 00000001800147d8     LIBCMT:winapinls.obj
 0002:000037e0       ??_C@_15NFGIAIAJ@?$AAv?$AAi?$AA?$AA@ 00000001800147e0     LIBCMT:winapinls.obj
 0002:000037e8       ??_C@_15LMKNDMHN@?$AAh?$AAy?$AA?$AA@ 00000001800147e8     LIBCMT:winapinls.obj
 0002:000037f0       ??_C@_15IJBHMCFL@?$AAa?$AAz?$AA?$AA@ 00000001800147f0     LIBCMT:winapinls.obj
 0002:000037f8       ??_C@_15EKOFJABL@?$AAe?$AAu?$AA?$AA@ 00000001800147f8     LIBCMT:winapinls.obj
 0002:00003800       ??_C@_15BGHADCNK@?$AAm?$AAk?$AA?$AA@ 0000000180014800     LIBCMT:winapinls.obj
 0002:00003808       ??_C@_15JDNICKHM@?$AAa?$AAf?$AA?$AA@ 0000000180014808     LIBCMT:winapinls.obj
 0002:00003810       ??_C@_15KPJEDBKD@?$AAk?$AAa?$AA?$AA@ 0000000180014810     LIBCMT:winapinls.obj
 0002:00003818       ??_C@_15PDNFFFEO@?$AAf?$AAo?$AA?$AA@ 0000000180014818     LIBCMT:winapinls.obj
 0002:00003820       ??_C@_15OMLEGLOC@?$AAh?$AAi?$AA?$AA@ 0000000180014820     LIBCMT:winapinls.obj
 0002:00003828       ??_C@_15IDNNENKK@?$AAm?$AAs?$AA?$AA@ 0000000180014828     LIBCMT:winapinls.obj
 0002:00003830       ??_C@_15MACJNBMH@?$AAk?$AAk?$AA?$AA@ 0000000180014830     LIBCMT:winapinls.obj
 0002:00003838       ??_C@_15DKDJEOND@?$AAk?$AAy?$AA?$AA@ 0000000180014838     LIBCMT:winapinls.obj
 0002:00003840       ??_C@_15DFGDLJBG@?$AAs?$AAw?$AA?$AA@ 0000000180014840     LIBCMT:winapinls.obj
 0002:00003848       ??_C@_15BBFAICNG@?$AAu?$AAz?$AA?$AA@ 0000000180014848     LIBCMT:winapinls.obj
 0002:00003850       ??_C@_15DKNDCGEA@?$AAt?$AAt?$AA?$AA@ 0000000180014850     LIBCMT:winapinls.obj
 0002:00003858       ??_C@_15MGIFMDPL@?$AAp?$AAa?$AA?$AA@ 0000000180014858     LIBCMT:winapinls.obj
 0002:00003860       ??_C@_15HCNDBBA@?$AAg?$AAu?$AA?$AA@ 0000000180014860     LIBCMT:winapinls.obj
 0002:00003868       ??_C@_15FNBEIBON@?$AAt?$AAa?$AA?$AA@ 0000000180014868     LIBCMT:winapinls.obj
 0002:00003870       ??_C@_15NCHGBGLK@?$AAt?$AAe?$AA?$AA@ 0000000180014870     LIBCMT:winapinls.obj
 0002:00003878       ??_C@_15PHPHCBPF@?$AAk?$AAn?$AA?$AA@ 0000000180014878     LIBCMT:winapinls.obj
 0002:00003880       ??_C@_15DLGBCKMP@?$AAm?$AAr?$AA?$AA@ 0000000180014880     LIBCMT:winapinls.obj
 0002:00003888       ??_C@_15EABBLBFF@?$AAs?$AAa?$AA?$AA@ 0000000180014888     LIBCMT:winapinls.obj
 0002:00003890       ??_C@_15CBKOMCOI@?$AAm?$AAn?$AA?$AA@ 0000000180014890     LIBCMT:winapinls.obj
 0002:00003898       ??_C@_15CKDMCJAF@?$AAg?$AAl?$AA?$AA@ 0000000180014898     LIBCMT:winapinls.obj
 0002:000038a0       ??_C@_17CNJFBPG@?$AAk?$AAo?$AAk?$AA?$AA@ 00000001800148a0     LIBCMT:winapinls.obj
 0002:000038a8       ??_C@_17FFBJICPL@?$AAs?$AAy?$AAr?$AA?$AA@ 00000001800148a8     LIBCMT:winapinls.obj
 0002:000038b0       ??_C@_17KPNDCPAF@?$AAd?$AAi?$AAv?$AA?$AA@ 00000001800148b0     LIBCMT:winapinls.obj
 0002:000038b8       ??_C@_11LOCGONAA@?$AA?$AA@ 00000001800148b8     LIBCMT:winapinls.obj
 0002:000038c0       ??_C@_1M@OKAHONE@?$AAa?$AAr?$AA?9?$AAS?$AAA?$AA?$AA@ 00000001800148c0     LIBCMT:winapinls.obj
 0002:000038d0       ??_C@_1M@FFFIGIGK@?$AAb?$AAg?$AA?9?$AAB?$AAG?$AA?$AA@ 00000001800148d0     LIBCMT:winapinls.obj
 0002:000038e0       ??_C@_1M@BJNKEDC@?$AAc?$AAa?$AA?9?$AAE?$AAS?$AA?$AA@ 00000001800148e0     LIBCMT:winapinls.obj
 0002:000038f0       ??_C@_1M@IJJHFJHA@?$AAc?$AAs?$AA?9?$AAC?$AAZ?$AA?$AA@ 00000001800148f0     LIBCMT:winapinls.obj
 0002:00003900       ??_C@_1M@CLPEOBGI@?$AAd?$AAa?$AA?9?$AAD?$AAK?$AA?$AA@ 0000000180014900     LIBCMT:winapinls.obj
 0002:00003910       ??_C@_1M@MCMADGCB@?$AAd?$AAe?$AA?9?$AAD?$AAE?$AA?$AA@ 0000000180014910     LIBCMT:winapinls.obj
 0002:00003920       ??_C@_1M@OOCKEMAM@?$AAe?$AAl?$AA?9?$AAG?$AAR?$AA?$AA@ 0000000180014920     LIBCMT:winapinls.obj
 0002:00003930       ??_C@_1M@DDNJFGID@?$AAf?$AAi?$AA?9?$AAF?$AAI?$AA?$AA@ 0000000180014930     LIBCMT:winapinls.obj
 0002:00003940       ??_C@_1M@GLIPPMAC@?$AAf?$AAr?$AA?9?$AAF?$AAR?$AA?$AA@ 0000000180014940     LIBCMT:winapinls.obj
 0002:00003950       ??_C@_1M@GFMCHPE@?$AAh?$AAe?$AA?9?$AAI?$AAL?$AA?$AA@ 0000000180014950     LIBCMT:winapinls.obj
 0002:00003960       ??_C@_1M@MHLPGNKM@?$AAh?$AAu?$AA?9?$AAH?$AAU?$AA?$AA@ 0000000180014960     LIBCMT:winapinls.obj
 0002:00003970       ??_C@_1M@LPDDNNPN@?$AAi?$AAs?$AA?9?$AAI?$AAS?$AA?$AA@ 0000000180014970     LIBCMT:winapinls.obj
 0002:00003980       ??_C@_1M@MADIPODN@?$AAi?$AAt?$AA?9?$AAI?$AAT?$AA?$AA@ 0000000180014980     LIBCMT:winapinls.obj
 0002:00003990       ??_C@_1M@IHBJJGG@?$AAn?$AAl?$AA?9?$AAN?$AAL?$AA?$AA@ 0000000180014990     LIBCMT:winapinls.obj
 0002:000039a0       ??_C@_1M@EANAGDL@?$AAn?$AAb?$AA?9?$AAN?$AAO?$AA?$AA@ 00000001800149a0     LIBCMT:winapinls.obj
 0002:000039b0       ??_C@_1M@NEIEMEGP@?$AAp?$AAl?$AA?9?$AAP?$AAL?$AA?$AA@ 00000001800149b0     LIBCMT:winapinls.obj
 0002:000039c0       ??_C@_1M@BOCFIGEP@?$AAp?$AAt?$AA?9?$AAB?$AAR?$AA?$AA@ 00000001800149c0     LIBCMT:winapinls.obj
 0002:000039d0       ??_C@_1M@IMPFOPBG@?$AAr?$AAo?$AA?9?$AAR?$AAO?$AA?$AA@ 00000001800149d0     LIBCMT:winapinls.obj
 0002:000039e0       ??_C@_1M@IDNNEJMM@?$AAr?$AAu?$AA?9?$AAR?$AAU?$AA?$AA@ 00000001800149e0     LIBCMT:winapinls.obj
 0002:000039f0       ??_C@_1M@LILEEOGM@?$AAh?$AAr?$AA?9?$AAH?$AAR?$AA?$AA@ 00000001800149f0     LIBCMT:winapinls.obj
 0002:00003a00       ??_C@_1M@FKIFEHPB@?$AAs?$AAk?$AA?9?$AAS?$AAK?$AA?$AA@ 0000000180014a00     LIBCMT:winapinls.obj
 0002:00003a10       ??_C@_1M@LJMAMNPJ@?$AAs?$AAq?$AA?9?$AAA?$AAL?$AA?$AA@ 0000000180014a10     LIBCMT:winapinls.obj
 0002:00003a20       ??_C@_1M@GIAKDKJK@?$AAs?$AAv?$AA?9?$AAS?$AAE?$AA?$AA@ 0000000180014a20     LIBCMT:winapinls.obj
 0002:00003a30       ??_C@_1M@MKJKIKCL@?$AAt?$AAh?$AA?9?$AAT?$AAH?$AA?$AA@ 0000000180014a30     LIBCMT:winapinls.obj
 0002:00003a40       ??_C@_1M@MFLCCMPB@?$AAt?$AAr?$AA?9?$AAT?$AAR?$AA?$AA@ 0000000180014a40     LIBCMT:winapinls.obj
 0002:00003a50       ??_C@_1M@OIJHDKJN@?$AAu?$AAr?$AA?9?$AAP?$AAK?$AA?$AA@ 0000000180014a50     LIBCMT:winapinls.obj
 0002:00003a60       ??_C@_1M@LHIPCIEK@?$AAi?$AAd?$AA?9?$AAI?$AAD?$AA?$AA@ 0000000180014a60     LIBCMT:winapinls.obj
 0002:00003a70       ??_C@_1M@MFMOBGI@?$AAu?$AAk?$AA?9?$AAU?$AAA?$AA?$AA@ 0000000180014a70     LIBCMT:winapinls.obj
 0002:00003a80       ??_C@_1M@OBGLJIPL@?$AAb?$AAe?$AA?9?$AAB?$AAY?$AA?$AA@ 0000000180014a80     LIBCMT:winapinls.obj
 0002:00003a90       ??_C@_1M@BCFAJEAD@?$AAs?$AAl?$AA?9?$AAS?$AAI?$AA?$AA@ 0000000180014a90     LIBCMT:winapinls.obj
 0002:00003aa0       ??_C@_1M@FKFFEDDN@?$AAe?$AAt?$AA?9?$AAE?$AAE?$AA?$AA@ 0000000180014aa0     LIBCMT:winapinls.obj
 0002:00003ab0       ??_C@_1M@KGKKAACI@?$AAl?$AAv?$AA?9?$AAL?$AAV?$AA?$AA@ 0000000180014ab0     LIBCMT:winapinls.obj
 0002:00003ac0       ??_C@_1M@IFGBIJO@?$AAl?$AAt?$AA?9?$AAL?$AAT?$AA?$AA@ 0000000180014ac0     LIBCMT:winapinls.obj
 0002:00003ad0       ??_C@_1M@FGEAHEDM@?$AAf?$AAa?$AA?9?$AAI?$AAR?$AA?$AA@ 0000000180014ad0     LIBCMT:winapinls.obj
 0002:00003ae0       ??_C@_1M@KBMAIBFN@?$AAv?$AAi?$AA?9?$AAV?$AAN?$AA?$AA@ 0000000180014ae0     LIBCMT:winapinls.obj
 0002:00003af0       ??_C@_1M@GPCBKDJK@?$AAh?$AAy?$AA?9?$AAA?$AAM?$AA?$AA@ 0000000180014af0     LIBCMT:winapinls.obj
 0002:00003b00       ??_C@_1BG@BECMDDJB@?$AAa?$AAz?$AA?9?$AAA?$AAZ?$AA?9?$AAL?$AAa?$AAt?$AAn?$AA?$AA@ 0000000180014b00     LIBCMT:winapinls.obj
 0002:00003b18       ??_C@_1M@MAOFCAEA@?$AAe?$AAu?$AA?9?$AAE?$AAS?$AA?$AA@ 0000000180014b18     LIBCMT:winapinls.obj
 0002:00003b28       ??_C@_1M@IGHABKPI@?$AAm?$AAk?$AA?9?$AAM?$AAK?$AA?$AA@ 0000000180014b28     LIBCMT:winapinls.obj
 0002:00003b38       ??_C@_1M@IAIGNEJG@?$AAt?$AAn?$AA?9?$AAZ?$AAA?$AA?$AA@ 0000000180014b38     LIBCMT:winapinls.obj
 0002:00003b48       ??_C@_1M@IIJCOJFA@?$AAx?$AAh?$AA?9?$AAZ?$AAA?$AA?$AA@ 0000000180014b48     LIBCMT:winapinls.obj
 0002:00003b58       ??_C@_1M@LGPJHNJH@?$AAz?$AAu?$AA?9?$AAZ?$AAA?$AA?$AA@ 0000000180014b58     LIBCMT:winapinls.obj
 0002:00003b68       ??_C@_1M@HOKAOIO@?$AAa?$AAf?$AA?9?$AAZ?$AAA?$AA?$AA@ 0000000180014b68     LIBCMT:winapinls.obj
 0002:00003b78       ??_C@_1M@DPCLHLIE@?$AAk?$AAa?$AA?9?$AAG?$AAE?$AA?$AA@ 0000000180014b78     LIBCMT:winapinls.obj
 0002:00003b88       ??_C@_1M@BLKMHJBI@?$AAf?$AAo?$AA?9?$AAF?$AAO?$AA?$AA@ 0000000180014b88     LIBCMT:winapinls.obj
 0002:00003b98       ??_C@_1M@LGGJAPPB@?$AAh?$AAi?$AA?9?$AAI?$AAN?$AA?$AA@ 0000000180014b98     LIBCMT:winapinls.obj
 0002:00003ba8       ??_C@_1M@FIKPIHFE@?$AAm?$AAt?$AA?9?$AAM?$AAT?$AA?$AA@ 0000000180014ba8     LIBCMT:winapinls.obj
 0002:00003bb8       ??_C@_1M@HEGGPBFA@?$AAs?$AAe?$AA?9?$AAN?$AAO?$AA?$AA@ 0000000180014bb8     LIBCMT:winapinls.obj
 0002:00003bc8       ??_C@_1M@EIBJEEPA@?$AAm?$AAs?$AA?9?$AAM?$AAY?$AA?$AA@ 0000000180014bc8     LIBCMT:winapinls.obj
 0002:00003bd8       ??_C@_1M@FHLBGMPP@?$AAk?$AAk?$AA?9?$AAK?$AAZ?$AA?$AA@ 0000000180014bd8     LIBCMT:winapinls.obj
 0002:00003be8       ??_C@_1M@NGJJLCGI@?$AAk?$AAy?$AA?9?$AAK?$AAG?$AA?$AA@ 0000000180014be8     LIBCMT:winapinls.obj
 0002:00003bf8       ??_C@_1M@GIENNBFC@?$AAs?$AAw?$AA?9?$AAK?$AAE?$AA?$AA@ 0000000180014bf8     LIBCMT:winapinls.obj
 0002:00003c08       ??_C@_1BG@NDGMJIMJ@?$AAu?$AAz?$AA?9?$AAU?$AAZ?$AA?9?$AAL?$AAa?$AAt?$AAn?$AA?$AA@ 0000000180014c08     LIBCMT:winapinls.obj
 0002:00003c20       ??_C@_1M@IDCCIHBC@?$AAt?$AAt?$AA?9?$AAR?$AAU?$AA?$AA@ 0000000180014c20     LIBCMT:winapinls.obj
 0002:00003c30       ??_C@_1M@LOICPMOJ@?$AAb?$AAn?$AA?9?$AAI?$AAN?$AA?$AA@ 0000000180014c30     LIBCMT:winapinls.obj
 0002:00003c40       ??_C@_1M@KPKKNEAH@?$AAp?$AAa?$AA?9?$AAI?$AAN?$AA?$AA@ 0000000180014c40     LIBCMT:winapinls.obj
 0002:00003c50       ??_C@_1M@PJGPPBOG@?$AAg?$AAu?$AA?9?$AAI?$AAN?$AA?$AA@ 0000000180014c50     LIBCMT:winapinls.obj
 0002:00003c60       ??_C@_1M@KMKMOPHI@?$AAt?$AAa?$AA?9?$AAI?$AAN?$AA?$AA@ 0000000180014c60     LIBCMT:winapinls.obj
 0002:00003c70       ??_C@_1M@KFEHEPAC@?$AAt?$AAe?$AA?9?$AAI?$AAN?$AA?$AA@ 0000000180014c70     LIBCMT:winapinls.obj
 0002:00003c80       ??_C@_1M@CDCLMGHI@?$AAk?$AAn?$AA?9?$AAI?$AAN?$AA?$AA@ 0000000180014c80     LIBCMT:winapinls.obj
 0002:00003c90       ??_C@_1M@MIODLDKF@?$AAm?$AAl?$AA?9?$AAI?$AAN?$AA?$AA@ 0000000180014c90     LIBCMT:winapinls.obj
 0002:00003ca0       ??_C@_1M@PBIEACPO@?$AAm?$AAr?$AA?9?$AAI?$AAN?$AA?$AA@ 0000000180014ca0     LIBCMT:winapinls.obj
 0002:00003cb0       ??_C@_1M@NIDEAGPH@?$AAs?$AAa?$AA?9?$AAI?$AAN?$AA?$AA@ 0000000180014cb0     LIBCMT:winapinls.obj
 0002:00003cc0       ??_C@_1M@FHIHCBIO@?$AAm?$AAn?$AA?9?$AAM?$AAN?$AA?$AA@ 0000000180014cc0     LIBCMT:winapinls.obj
 0002:00003cd0       ??_C@_1M@JAIJPENP@?$AAc?$AAy?$AA?9?$AAG?$AAB?$AA?$AA@ 0000000180014cd0     LIBCMT:winapinls.obj
 0002:00003ce0       ??_C@_1M@PHGFBEPN@?$AAg?$AAl?$AA?9?$AAE?$AAS?$AA?$AA@ 0000000180014ce0     LIBCMT:winapinls.obj
 0002:00003cf0       ??_C@_1O@KPIPDNCP@?$AAk?$AAo?$AAk?$AA?9?$AAI?$AAN?$AA?$AA@ 0000000180014cf0     LIBCMT:winapinls.obj
 0002:00003d00       ??_C@_1O@KNHJLDJA@?$AAs?$AAy?$AAr?$AA?9?$AAS?$AAY?$AA?$AA@ 0000000180014d00     LIBCMT:winapinls.obj
 0002:00003d10       ??_C@_1O@MKEKBLAH@?$AAd?$AAi?$AAv?$AA?9?$AAM?$AAV?$AA?$AA@ 0000000180014d10     LIBCMT:winapinls.obj
 0002:00003d20       ??_C@_1O@OHDCKDDF@?$AAq?$AAu?$AAz?$AA?9?$AAB?$AAO?$AA?$AA@ 0000000180014d20     LIBCMT:winapinls.obj
 0002:00003d30       ??_C@_1M@LEPJNLFD@?$AAn?$AAs?$AA?9?$AAZ?$AAA?$AA?$AA@ 0000000180014d30     LIBCMT:winapinls.obj
 0002:00003d40       ??_C@_1M@OMLEIIJB@?$AAm?$AAi?$AA?9?$AAN?$AAZ?$AA?$AA@ 0000000180014d40     LIBCMT:winapinls.obj
 0002:00003d50       ??_C@_1M@PMPEAILG@?$AAa?$AAr?$AA?9?$AAI?$AAQ?$AA?$AA@ 0000000180014d50     LIBCMT:winapinls.obj
 0002:00003d60       ??_C@_1M@CNKPNOEE@?$AAd?$AAe?$AA?9?$AAC?$AAH?$AA?$AA@ 0000000180014d60     LIBCMT:winapinls.obj
 0002:00003d70       ??_C@_1M@LKMGMLKO@?$AAe?$AAn?$AA?9?$AAG?$AAB?$AA?$AA@ 0000000180014d70     LIBCMT:winapinls.obj
 0002:00003d80       ??_C@_1M@PGKJFFGL@?$AAe?$AAs?$AA?9?$AAM?$AAX?$AA?$AA@ 0000000180014d80     LIBCMT:winapinls.obj
 0002:00003d90       ??_C@_1M@DNNANBDC@?$AAf?$AAr?$AA?9?$AAB?$AAE?$AA?$AA@ 0000000180014d90     LIBCMT:winapinls.obj
 0002:00003da0       ??_C@_1M@HLGMDFHM@?$AAi?$AAt?$AA?9?$AAC?$AAH?$AA?$AA@ 0000000180014da0     LIBCMT:winapinls.obj
 0002:00003db0       ??_C@_1M@CLLBGJH@?$AAn?$AAl?$AA?9?$AAB?$AAE?$AA?$AA@ 0000000180014db0     LIBCMT:winapinls.obj
 0002:00003dc0       ??_C@_1M@BODBOGLF@?$AAn?$AAn?$AA?9?$AAN?$AAO?$AA?$AA@ 0000000180014dc0     LIBCMT:winapinls.obj
 0002:00003dd0       ??_C@_1M@HFFAHKAD@?$AAp?$AAt?$AA?9?$AAP?$AAT?$AA?$AA@ 0000000180014dd0     LIBCMT:winapinls.obj
 0002:00003de0       ??_C@_1BG@LNOAKHIE@?$AAs?$AAr?$AA?9?$AAS?$AAP?$AA?9?$AAL?$AAa?$AAt?$AAn?$AA?$AA@ 0000000180014de0     LIBCMT:winapinls.obj
 0002:00003df8       ??_C@_1M@HBMHBGAK@?$AAs?$AAv?$AA?9?$AAF?$AAI?$AA?$AA@ 0000000180014df8     LIBCMT:winapinls.obj
 0002:00003e08       ??_C@_1BG@DGCJGJBE@?$AAa?$AAz?$AA?9?$AAA?$AAZ?$AA?9?$AAC?$AAy?$AAr?$AAl?$AA?$AA@ 0000000180014e08     LIBCMT:winapinls.obj
 0002:00003e20       ??_C@_1M@KEJDAAHB@?$AAs?$AAe?$AA?9?$AAS?$AAE?$AA?$AA@ 0000000180014e20     LIBCMT:winapinls.obj
 0002:00003e30       ??_C@_1M@HEIBJJAD@?$AAm?$AAs?$AA?9?$AAB?$AAN?$AA?$AA@ 0000000180014e30     LIBCMT:winapinls.obj
 0002:00003e40       ??_C@_1BG@PBGJMCEM@?$AAu?$AAz?$AA?9?$AAU?$AAZ?$AA?9?$AAC?$AAy?$AAr?$AAl?$AA?$AA@ 0000000180014e40     LIBCMT:winapinls.obj
 0002:00003e58       ??_C@_1O@LAOBCMDF@?$AAq?$AAu?$AAz?$AA?9?$AAE?$AAC?$AA?$AA@ 0000000180014e58     LIBCMT:winapinls.obj
 0002:00003e68       ??_C@_1M@POEEMAIO@?$AAa?$AAr?$AA?9?$AAE?$AAG?$AA?$AA@ 0000000180014e68     LIBCMT:winapinls.obj
 0002:00003e78       ??_C@_1M@EFAKDEDL@?$AAz?$AAh?$AA?9?$AAH?$AAK?$AA?$AA@ 0000000180014e78     LIBCMT:winapinls.obj
 0002:00003e88       ??_C@_1M@HKKIJHGI@?$AAd?$AAe?$AA?9?$AAA?$AAT?$AA?$AA@ 0000000180014e88     LIBCMT:winapinls.obj
 0002:00003e98       ??_C@_1M@KBFBEHJF@?$AAe?$AAn?$AA?9?$AAA?$AAU?$AA?$AA@ 0000000180014e98     LIBCMT:winapinls.obj
 0002:00003ea8       ??_C@_1M@MNPLFAAH@?$AAe?$AAs?$AA?9?$AAE?$AAS?$AA?$AA@ 0000000180014ea8     LIBCMT:winapinls.obj
 0002:00003eb8       ??_C@_1M@HJOOJFMA@?$AAf?$AAr?$AA?9?$AAC?$AAA?$AA?$AA@ 0000000180014eb8     LIBCMT:winapinls.obj
 0002:00003ec8       ??_C@_1BG@JPOFPNAB@?$AAs?$AAr?$AA?9?$AAS?$AAP?$AA?9?$AAC?$AAy?$AAr?$AAl?$AA?$AA@ 0000000180014ec8     LIBCMT:winapinls.obj
 0002:00003ee0       ??_C@_1M@LNFOCMOB@?$AAs?$AAe?$AA?9?$AAF?$AAI?$AA?$AA@ 0000000180014ee0     LIBCMT:winapinls.obj
 0002:00003ef0       ??_C@_1O@MGJBOAMB@?$AAq?$AAu?$AAz?$AA?9?$AAP?$AAE?$AA?$AA@ 0000000180014ef0     LIBCMT:winapinls.obj
 0002:00003f00       ??_C@_1M@GJINLBOK@?$AAa?$AAr?$AA?9?$AAL?$AAY?$AA?$AA@ 0000000180014f00     LIBCMT:winapinls.obj
 0002:00003f10       ??_C@_1M@GGMNHJNL@?$AAz?$AAh?$AA?9?$AAS?$AAG?$AA?$AA@ 0000000180014f10     LIBCMT:winapinls.obj
 0002:00003f20       ??_C@_1M@HOIKODND@?$AAd?$AAe?$AA?9?$AAL?$AAU?$AA?$AA@ 0000000180014f20     LIBCMT:winapinls.obj
 0002:00003f30       ??_C@_1M@DDOCCGFG@?$AAe?$AAn?$AA?9?$AAC?$AAA?$AA?$AA@ 0000000180014f30     LIBCMT:winapinls.obj
 0002:00003f40       ??_C@_1M@BNOEMJLF@?$AAe?$AAs?$AA?9?$AAG?$AAT?$AA?$AA@ 0000000180014f40     LIBCMT:winapinls.obj
 0002:00003f50       ??_C@_1M@EOGNKEK@?$AAf?$AAr?$AA?9?$AAC?$AAH?$AA?$AA@ 0000000180014f50     LIBCMT:winapinls.obj
 0002:00003f60       ??_C@_1M@FLIDJFHL@?$AAh?$AAr?$AA?9?$AAB?$AAA?$AA?$AA@ 0000000180014f60     LIBCMT:winapinls.obj
 0002:00003f70       ??_C@_1O@FMCELNAJ@?$AAs?$AAm?$AAj?$AA?9?$AAN?$AAO?$AA?$AA@ 0000000180014f70     LIBCMT:winapinls.obj
 0002:00003f80       ??_C@_1M@JHGLJMGJ@?$AAa?$AAr?$AA?9?$AAD?$AAZ?$AA?$AA@ 0000000180014f80     LIBCMT:winapinls.obj
 0002:00003f90       ??_C@_1M@JKKFDCNP@?$AAz?$AAh?$AA?9?$AAM?$AAO?$AA?$AA@ 0000000180014f90     LIBCMT:winapinls.obj
 0002:00003fa0       ??_C@_1M@GEEFALPE@?$AAd?$AAe?$AA?9?$AAL?$AAI?$AA?$AA@ 0000000180014fa0     LIBCMT:winapinls.obj
 0002:00003fb0       ??_C@_1M@IGEOFBG@?$AAe?$AAn?$AA?9?$AAN?$AAZ?$AA?$AA@ 0000000180014fb0     LIBCMT:winapinls.obj
 0002:00003fc0       ??_C@_1M@KDBONEHP@?$AAe?$AAs?$AA?9?$AAC?$AAR?$AA?$AA@ 0000000180014fc0     LIBCMT:winapinls.obj
 0002:00003fd0       ??_C@_1M@FHMDOHNN@?$AAf?$AAr?$AA?9?$AAL?$AAU?$AA?$AA@ 0000000180014fd0     LIBCMT:winapinls.obj
 0002:00003fe0       ??_C@_1BG@NFKKMAFG@?$AAb?$AAs?$AA?9?$AAB?$AAA?$AA?9?$AAL?$AAa?$AAt?$AAn?$AA?$AA@ 0000000180014fe0     LIBCMT:winapinls.obj
 0002:00003ff8       ??_C@_1O@IMNBEMCI@?$AAs?$AAm?$AAj?$AA?9?$AAS?$AAE?$AA?$AA@ 0000000180014ff8     LIBCMT:winapinls.obj
 0002:00004008       ??_C@_1M@DHHMBNDP@?$AAa?$AAr?$AA?9?$AAM?$AAA?$AA?$AA@ 0000000180015008     LIBCMT:winapinls.obj
 0002:00004018       ??_C@_1M@BNBLJCGH@?$AAe?$AAn?$AA?9?$AAI?$AAE?$AA?$AA@ 0000000180015018     LIBCMT:winapinls.obj
 0002:00004028       ??_C@_1M@GEPAFMDL@?$AAe?$AAs?$AA?9?$AAP?$AAA?$AA?$AA@ 0000000180015028     LIBCMT:winapinls.obj
 0002:00004038       ??_C@_1M@OJONDMDL@?$AAf?$AAr?$AA?9?$AAM?$AAC?$AA?$AA@ 0000000180015038     LIBCMT:winapinls.obj
 0002:00004048       ??_C@_1BG@OBCNFJB@?$AAs?$AAr?$AA?9?$AAB?$AAA?$AA?9?$AAL?$AAa?$AAt?$AAn?$AA?$AA@ 0000000180015048     LIBCMT:winapinls.obj
 0002:00004060       ??_C@_1O@KEMEEGPO@?$AAs?$AAm?$AAa?$AA?9?$AAN?$AAO?$AA?$AA@ 0000000180015060     LIBCMT:winapinls.obj
 0002:00004070       ??_C@_1M@ELMGFODK@?$AAa?$AAr?$AA?9?$AAT?$AAN?$AA?$AA@ 0000000180015070     LIBCMT:winapinls.obj
 0002:00004080       ??_C@_1M@BHDLHFAF@?$AAe?$AAn?$AA?9?$AAZ?$AAA?$AA?$AA@ 0000000180015080     LIBCMT:winapinls.obj
 0002:00004090       ??_C@_1M@BMGIGLIF@?$AAe?$AAs?$AA?9?$AAD?$AAO?$AA?$AA@ 0000000180015090     LIBCMT:winapinls.obj
 0002:000040a0       ??_C@_1BG@CMBHIPBE@?$AAs?$AAr?$AA?9?$AAB?$AAA?$AA?9?$AAC?$AAy?$AAr?$AAl?$AA?$AA@ 00000001800150a0     LIBCMT:winapinls.obj
 0002:000040b8       ??_C@_1O@HEDBLHNP@?$AAs?$AAm?$AAa?$AA?9?$AAS?$AAE?$AA?$AA@ 00000001800150b8     LIBCMT:winapinls.obj
 0002:000040c8       ??_C@_1M@DAGCADIM@?$AAa?$AAr?$AA?9?$AAO?$AAM?$AA?$AA@ 00000001800150c8     LIBCMT:winapinls.obj
 0002:000040d8       ??_C@_1M@FODLMICG@?$AAe?$AAn?$AA?9?$AAJ?$AAM?$AA?$AA@ 00000001800150d8     LIBCMT:winapinls.obj
 0002:000040e8       ??_C@_1M@DNMLCIHB@?$AAe?$AAs?$AA?9?$AAV?$AAE?$AA?$AA@ 00000001800150e8     LIBCMT:winapinls.obj
 0002:000040f8       ??_C@_1O@EOKHMKJK@?$AAs?$AAm?$AAs?$AA?9?$AAF?$AAI?$AA?$AA@ 00000001800150f8     LIBCMT:winapinls.obj
 0002:00004108       ??_C@_1M@CAFJMKOF@?$AAa?$AAr?$AA?9?$AAY?$AAE?$AA?$AA@ 0000000180015108     LIBCMT:winapinls.obj
 0002:00004118       ??_C@_1M@CBFHIJLI@?$AAe?$AAn?$AA?9?$AAC?$AAB?$AA?$AA@ 0000000180015118     LIBCMT:winapinls.obj
 0002:00004128       ??_C@_1M@BGNFLDN@?$AAe?$AAs?$AA?9?$AAC?$AAO?$AA?$AA@ 0000000180015128     LIBCMT:winapinls.obj
 0002:00004138       ??_C@_1O@JMPHMAMC@?$AAs?$AAm?$AAn?$AA?9?$AAF?$AAI?$AA?$AA@ 0000000180015138     LIBCMT:winapinls.obj
 0002:00004148       ??_C@_1M@JLANABKE@?$AAa?$AAr?$AA?9?$AAS?$AAY?$AA?$AA@ 0000000180015148     LIBCMT:winapinls.obj
 0002:00004158       ??_C@_1M@HPKGCFGN@?$AAe?$AAn?$AA?9?$AAB?$AAZ?$AA?$AA@ 0000000180015158     LIBCMT:winapinls.obj
 0002:00004168       ??_C@_1M@OLJCMLGM@?$AAe?$AAs?$AA?9?$AAP?$AAE?$AA?$AA@ 0000000180015168     LIBCMT:winapinls.obj
 0002:00004178       ??_C@_1M@MKKGFKLE@?$AAa?$AAr?$AA?9?$AAJ?$AAO?$AA?$AA@ 0000000180015178     LIBCMT:winapinls.obj
 0002:00004188       ??_C@_1M@EKPGLDNI@?$AAe?$AAn?$AA?9?$AAT?$AAT?$AA?$AA@ 0000000180015188     LIBCMT:winapinls.obj
 0002:00004198       ??_C@_1M@OONGHFHE@?$AAe?$AAs?$AA?9?$AAA?$AAR?$AA?$AA@ 0000000180015198     LIBCMT:winapinls.obj
 0002:000041a8       ??_C@_1M@OOJFGBHE@?$AAa?$AAr?$AA?9?$AAL?$AAB?$AA?$AA@ 00000001800151a8     LIBCMT:winapinls.obj
 0002:000041b8       ??_C@_1M@GCEJHNEG@?$AAe?$AAn?$AA?9?$AAZ?$AAW?$AA?$AA@ 00000001800151b8     LIBCMT:winapinls.obj
 0002:000041c8       ??_C@_1M@JNOCAHJI@?$AAe?$AAs?$AA?9?$AAE?$AAC?$AA?$AA@ 00000001800151c8     LIBCMT:winapinls.obj
 0002:000041d8       ??_C@_1M@JEFHPGGB@?$AAa?$AAr?$AA?9?$AAK?$AAW?$AA?$AA@ 00000001800151d8     LIBCMT:winapinls.obj
 0002:000041e8       ??_C@_1M@MLKIBJOJ@?$AAe?$AAn?$AA?9?$AAP?$AAH?$AA?$AA@ 00000001800151e8     LIBCMT:winapinls.obj
 0002:000041f8       ??_C@_1M@BDNIPEND@?$AAe?$AAs?$AA?9?$AAC?$AAL?$AA?$AA@ 00000001800151f8     LIBCMT:winapinls.obj
 0002:00004208       ??_C@_1M@MPNMEKBD@?$AAa?$AAr?$AA?9?$AAA?$AAE?$AA?$AA@ 0000000180015208     LIBCMT:winapinls.obj
 0002:00004218       ??_C@_1M@KBJALCPI@?$AAe?$AAs?$AA?9?$AAU?$AAY?$AA?$AA@ 0000000180015218     LIBCMT:winapinls.obj
 0002:00004228       ??_C@_1M@LLCCOAGA@?$AAa?$AAr?$AA?9?$AAB?$AAH?$AA?$AA@ 0000000180015228     LIBCMT:winapinls.obj
 0002:00004238       ??_C@_1M@PBFNCDEL@?$AAe?$AAs?$AA?9?$AAP?$AAY?$AA?$AA@ 0000000180015238     LIBCMT:winapinls.obj
 0002:00004248       ??_C@_1M@EDGINPNP@?$AAa?$AAr?$AA?9?$AAQ?$AAA?$AA?$AA@ 0000000180015248     LIBCMT:winapinls.obj
 0002:00004258       ??_C@_1M@MKDBIIJI@?$AAe?$AAs?$AA?9?$AAB?$AAO?$AA?$AA@ 0000000180015258     LIBCMT:winapinls.obj
 0002:00004268       ??_C@_1M@CPKKEBLD@?$AAe?$AAs?$AA?9?$AAS?$AAV?$AA?$AA@ 0000000180015268     LIBCMT:winapinls.obj
 0002:00004278       ??_C@_1M@NDBGMMJL@?$AAe?$AAs?$AA?9?$AAH?$AAN?$AA?$AA@ 0000000180015278     LIBCMT:winapinls.obj
 0002:00004288       ??_C@_1M@JIJIBHDP@?$AAe?$AAs?$AA?9?$AAN?$AAI?$AA?$AA@ 0000000180015288     LIBCMT:winapinls.obj
 0002:00004298       ??_C@_1M@CGFMKEEK@?$AAe?$AAs?$AA?9?$AAP?$AAR?$AA?$AA@ 0000000180015298     LIBCMT:winapinls.obj
 0002:000042a8       ??_C@_1O@ICJHKIIK@?$AAz?$AAh?$AA?9?$AAC?$AAH?$AAT?$AA?$AA@ 00000001800152a8     LIBCMT:winapinls.obj
 0002:000042b8       ??_C@_15CLNEJCE@?$AAs?$AAr?$AA?$AA@ 00000001800152b8     LIBCMT:winapinls.obj
 0002:000042c0       ??_C@_1M@KAHEKEIG@?$AAa?$AAf?$AA?9?$AAz?$AAa?$AA?$AA@ 00000001800152c0     LIBCMT:winapinls.obj
 0002:000042d0       ??_C@_1M@GIECOABL@?$AAa?$AAr?$AA?9?$AAa?$AAe?$AA?$AA@ 00000001800152d0     LIBCMT:winapinls.obj
 0002:000042e0       ??_C@_1M@BMLMEKGI@?$AAa?$AAr?$AA?9?$AAb?$AAh?$AA?$AA@ 00000001800152e0     LIBCMT:winapinls.obj
 0002:000042f0       ??_C@_1M@DAPFDGGB@?$AAa?$AAr?$AA?9?$AAd?$AAz?$AA?$AA@ 00000001800152f0     LIBCMT:winapinls.obj
 0002:00004300       ??_C@_1M@FJNKGKIG@?$AAa?$AAr?$AA?9?$AAe?$AAg?$AA?$AA@ 0000000180015300     LIBCMT:winapinls.obj
 0002:00004310       ??_C@_1M@FLGKKCLO@?$AAa?$AAr?$AA?9?$AAi?$AAq?$AA?$AA@ 0000000180015310     LIBCMT:winapinls.obj
 0002:00004320       ??_C@_1M@GNDIPALM@?$AAa?$AAr?$AA?9?$AAj?$AAo?$AA?$AA@ 0000000180015320     LIBCMT:winapinls.obj
 0002:00004330       ??_C@_1M@DDMJFMGJ@?$AAa?$AAr?$AA?9?$AAk?$AAw?$AA?$AA@ 0000000180015330     LIBCMT:winapinls.obj
 0002:00004340       ??_C@_1M@EJALMLHM@?$AAa?$AAr?$AA?9?$AAl?$AAb?$AA?$AA@ 0000000180015340     LIBCMT:winapinls.obj
 0002:00004350       ??_C@_1M@MOBDBLOC@?$AAa?$AAr?$AA?9?$AAl?$AAy?$AA?$AA@ 0000000180015350     LIBCMT:winapinls.obj
 0002:00004360       ??_C@_1M@JAOCLHDH@?$AAa?$AAr?$AA?9?$AAm?$AAa?$AA?$AA@ 0000000180015360     LIBCMT:winapinls.obj
 0002:00004370       ??_C@_1M@JHPMKJIE@?$AAa?$AAr?$AA?9?$AAo?$AAm?$AA?$AA@ 0000000180015370     LIBCMT:winapinls.obj
 0002:00004380       ??_C@_1M@OEPGHFNH@?$AAa?$AAr?$AA?9?$AAq?$AAa?$AA?$AA@ 0000000180015380     LIBCMT:winapinls.obj
 0002:00004390       ??_C@_1M@KJDONENM@?$AAa?$AAr?$AA?9?$AAs?$AAa?$AA?$AA@ 0000000180015390     LIBCMT:winapinls.obj
 0002:000043a0       ??_C@_1M@DMJDKLKM@?$AAa?$AAr?$AA?9?$AAs?$AAy?$AA?$AA@ 00000001800153a0     LIBCMT:winapinls.obj
 0002:000043b0       ??_C@_1M@OMFIPEDC@?$AAa?$AAr?$AA?9?$AAt?$AAn?$AA?$AA@ 00000001800153b0     LIBCMT:winapinls.obj
 0002:000043c0       ??_C@_1M@IHMHGAON@?$AAa?$AAr?$AA?9?$AAy?$AAe?$AA?$AA@ 00000001800153c0     LIBCMT:winapinls.obj
 0002:000043d0       ??_C@_1BG@KDCPGJGB@?$AAa?$AAz?$AA?9?$AAa?$AAz?$AA?9?$AAc?$AAy?$AAr?$AAl?$AA?$AA@ 00000001800153d0     LIBCMT:winapinls.obj
 0002:000043e8       ??_C@_1BG@IBCKDDOE@?$AAa?$AAz?$AA?9?$AAa?$AAz?$AA?9?$AAl?$AAa?$AAt?$AAn?$AA?$AA@ 00000001800153e8     LIBCMT:winapinls.obj
 0002:00004400       ??_C@_1M@EGPFDCPD@?$AAb?$AAe?$AA?9?$AAb?$AAy?$AA?$AA@ 0000000180015400     LIBCMT:winapinls.obj
 0002:00004410       ??_C@_1M@PCMGMCGC@?$AAb?$AAg?$AA?9?$AAb?$AAg?$AA?$AA@ 0000000180015410     LIBCMT:winapinls.obj
 0002:00004420       ??_C@_1M@BJBMFGOB@?$AAb?$AAn?$AA?9?$AAi?$AAn?$AA?$AA@ 0000000180015420     LIBCMT:winapinls.obj
 0002:00004430       ??_C@_1BG@EAKMMACD@?$AAb?$AAs?$AA?9?$AAb?$AAa?$AA?9?$AAl?$AAa?$AAt?$AAn?$AA?$AA@ 0000000180015430     LIBCMT:winapinls.obj
 0002:00004448       ??_C@_1M@KGADAODK@?$AAc?$AAa?$AA?9?$AAe?$AAs?$AA?$AA@ 0000000180015448     LIBCMT:winapinls.obj
 0002:00004458       ??_C@_1M@COAJPDHI@?$AAc?$AAs?$AA?9?$AAc?$AAz?$AA?$AA@ 0000000180015458     LIBCMT:winapinls.obj
 0002:00004468       ??_C@_1M@DHBHFONH@?$AAc?$AAy?$AA?9?$AAg?$AAb?$AA?$AA@ 0000000180015468     LIBCMT:winapinls.obj
 0002:00004478       ??_C@_1M@IMGKELGA@?$AAd?$AAa?$AA?9?$AAd?$AAk?$AA?$AA@ 0000000180015478     LIBCMT:winapinls.obj
 0002:00004488       ??_C@_1M@NNDGDNGA@?$AAd?$AAe?$AA?9?$AAa?$AAt?$AA?$AA@ 0000000180015488     LIBCMT:winapinls.obj
 0002:00004498       ??_C@_1M@IKDBHEEM@?$AAd?$AAe?$AA?9?$AAc?$AAh?$AA?$AA@ 0000000180015498     LIBCMT:winapinls.obj
 0002:000044a8       ??_C@_1M@GFFOJMCJ@?$AAd?$AAe?$AA?9?$AAd?$AAe?$AA?$AA@ 00000001800154a8     LIBCMT:winapinls.obj
 0002:000044b8       ??_C@_1M@MDNLKBPM@?$AAd?$AAe?$AA?9?$AAl?$AAi?$AA?$AA@ 00000001800154b8     LIBCMT:winapinls.obj
 0002:000044c8       ??_C@_1M@NJBEEJNL@?$AAd?$AAe?$AA?9?$AAl?$AAu?$AA?$AA@ 00000001800154c8     LIBCMT:winapinls.obj
 0002:000044d8       ??_C@_1O@GNNELBAP@?$AAd?$AAi?$AAv?$AA?9?$AAm?$AAv?$AA?$AA@ 00000001800154d8     LIBCMT:winapinls.obj
 0002:000044e8       ??_C@_1M@EJLEOGAE@?$AAe?$AAl?$AA?9?$AAg?$AAr?$AA?$AA@ 00000001800154e8     LIBCMT:winapinls.obj
 0002:000044f8       ??_C@_1M@GMPONJN@?$AAe?$AAn?$AA?9?$AAa?$AAu?$AA?$AA@ 00000001800154f8     LIBCMT:winapinls.obj
 0002:00004508       ??_C@_1M@NIDIIPGF@?$AAe?$AAn?$AA?9?$AAb?$AAz?$AA?$AA@ 0000000180015508     LIBCMT:winapinls.obj
 0002:00004518       ??_C@_1M@JEHMIMFO@?$AAe?$AAn?$AA?9?$AAc?$AAa?$AA?$AA@ 0000000180015518     LIBCMT:winapinls.obj
 0002:00004528       ??_C@_1M@IGMJCDLA@?$AAe?$AAn?$AA?9?$AAc?$AAb?$AA?$AA@ 0000000180015528     LIBCMT:winapinls.obj
 0002:00004538       ??_C@_1M@BNFIGBKG@?$AAe?$AAn?$AA?9?$AAg?$AAb?$AA?$AA@ 0000000180015538     LIBCMT:winapinls.obj
 0002:00004548       ??_C@_1M@LKIFDIGP@?$AAe?$AAn?$AA?9?$AAi?$AAe?$AA?$AA@ 0000000180015548     LIBCMT:winapinls.obj
 0002:00004558       ??_C@_1M@PJKFGCCO@?$AAe?$AAn?$AA?9?$AAj?$AAm?$AA?$AA@ 0000000180015558     LIBCMT:winapinls.obj
 0002:00004568       ??_C@_1M@KPPKEPBO@?$AAe?$AAn?$AA?9?$AAn?$AAz?$AA?$AA@ 0000000180015568     LIBCMT:winapinls.obj
 0002:00004578       ??_C@_1M@GMDGLDOB@?$AAe?$AAn?$AA?9?$AAp?$AAh?$AA?$AA@ 0000000180015578     LIBCMT:winapinls.obj
 0002:00004588       ??_C@_1M@ONGIBJNA@?$AAe?$AAn?$AA?9?$AAt?$AAt?$AA?$AA@ 0000000180015588     LIBCMT:winapinls.obj
 0002:00004598       ??_C@_1M@LLODPCMM@?$AAe?$AAn?$AA?9?$AAu?$AAs?$AA?$AA@ 0000000180015598     LIBCMT:winapinls.obj
 0002:000045a8       ??_C@_1M@LAKFNPAN@?$AAe?$AAn?$AA?9?$AAz?$AAa?$AA?$AA@ 00000001800155a8     LIBCMT:winapinls.obj
 0002:000045b8       ??_C@_1M@MFNHNHEO@?$AAe?$AAn?$AA?9?$AAz?$AAw?$AA?$AA@ 00000001800155b8     LIBCMT:winapinls.obj
 0002:000045c8       ??_C@_1M@EJEINPHM@?$AAe?$AAs?$AA?9?$AAa?$AAr?$AA?$AA@ 00000001800155c8     LIBCMT:winapinls.obj
 0002:000045d8       ??_C@_1M@GNKPCCJA@?$AAe?$AAs?$AA?9?$AAb?$AAo?$AA?$AA@ 00000001800155d8     LIBCMT:winapinls.obj
 0002:000045e8       ??_C@_1M@LEEGFONL@?$AAe?$AAs?$AA?9?$AAc?$AAl?$AA?$AA@ 00000001800155e8     LIBCMT:winapinls.obj
 0002:000045f8       ??_C@_1M@KGPDPBDF@?$AAe?$AAs?$AA?9?$AAc?$AAo?$AA?$AA@ 00000001800155f8     LIBCMT:winapinls.obj
 0002:00004608       ??_C@_1M@EIAHOHH@?$AAe?$AAs?$AA?9?$AAc?$AAr?$AA?$AA@ 0000000180015608     LIBCMT:winapinls.obj
 0002:00004618       ??_C@_1M@LLPGMBIN@?$AAe?$AAs?$AA?9?$AAd?$AAo?$AA?$AA@ 0000000180015618     LIBCMT:winapinls.obj
 0002:00004628       ??_C@_1M@DKHMKNJA@?$AAe?$AAs?$AA?9?$AAe?$AAc?$AA?$AA@ 0000000180015628     LIBCMT:winapinls.obj
 0002:00004638       ??_C@_1M@GKGFPKAP@?$AAe?$AAs?$AA?9?$AAe?$AAs?$AA?$AA@ 0000000180015638     LIBCMT:winapinls.obj
 0002:00004648       ??_C@_1M@LKHKGDLN@?$AAe?$AAs?$AA?9?$AAg?$AAt?$AA?$AA@ 0000000180015648     LIBCMT:winapinls.obj
 0002:00004658       ??_C@_1M@HEIIGGJD@?$AAe?$AAs?$AA?9?$AAh?$AAn?$AA?$AA@ 0000000180015658     LIBCMT:winapinls.obj
 0002:00004668       ??_C@_1M@FBDHPPGD@?$AAe?$AAs?$AA?9?$AAm?$AAx?$AA?$AA@ 0000000180015668     LIBCMT:winapinls.obj
 0002:00004678       ??_C@_1M@DPAGLNDH@?$AAe?$AAs?$AA?9?$AAn?$AAi?$AA?$AA@ 0000000180015678     LIBCMT:winapinls.obj
 0002:00004688       ??_C@_1M@MDGOPGDD@?$AAe?$AAs?$AA?9?$AAp?$AAa?$AA?$AA@ 0000000180015688     LIBCMT:winapinls.obj
 0002:00004698       ??_C@_1M@EMAMGBGE@?$AAe?$AAs?$AA?9?$AAp?$AAe?$AA?$AA@ 0000000180015698     LIBCMT:winapinls.obj
 0002:000046a8       ??_C@_1M@IBMCAOEC@?$AAe?$AAs?$AA?9?$AAp?$AAr?$AA?$AA@ 00000001800156a8     LIBCMT:winapinls.obj
 0002:000046b8       ??_C@_1M@FGMDIJED@?$AAe?$AAs?$AA?9?$AAp?$AAy?$AA?$AA@ 00000001800156b8     LIBCMT:winapinls.obj
 0002:000046c8       ??_C@_1M@IIDEOLLL@?$AAe?$AAs?$AA?9?$AAs?$AAv?$AA?$AA@ 00000001800156c8     LIBCMT:winapinls.obj
 0002:000046d8       ??_C@_1M@GAOBIPA@?$AAe?$AAs?$AA?9?$AAu?$AAy?$AA?$AA@ 00000001800156d8     LIBCMT:winapinls.obj
 0002:000046e8       ??_C@_1M@JKFFICHJ@?$AAe?$AAs?$AA?9?$AAv?$AAe?$AA?$AA@ 00000001800156e8     LIBCMT:winapinls.obj
 0002:000046f8       ??_C@_1M@PNMLOJDF@?$AAe?$AAt?$AA?9?$AAe?$AAe?$AA?$AA@ 00000001800156f8     LIBCMT:winapinls.obj
 0002:00004708       ??_C@_1M@GHHLIKEI@?$AAe?$AAu?$AA?9?$AAe?$AAs?$AA?$AA@ 0000000180015708     LIBCMT:winapinls.obj
 0002:00004718       ??_C@_1M@PBNONODE@?$AAf?$AAa?$AA?9?$AAi?$AAr?$AA?$AA@ 0000000180015718     LIBCMT:winapinls.obj
 0002:00004728       ??_C@_1M@JEEHPMIL@?$AAf?$AAi?$AA?9?$AAf?$AAi?$AA?$AA@ 0000000180015728     LIBCMT:winapinls.obj
 0002:00004738       ??_C@_1M@LMDCNDBA@?$AAf?$AAo?$AA?9?$AAf?$AAo?$AA?$AA@ 0000000180015738     LIBCMT:winapinls.obj
 0002:00004748       ??_C@_1M@JKEOHLDK@?$AAf?$AAr?$AA?9?$AAb?$AAe?$AA?$AA@ 0000000180015748     LIBCMT:winapinls.obj
 0002:00004758       ??_C@_1M@NOHADPMI@?$AAf?$AAr?$AA?9?$AAc?$AAa?$AA?$AA@ 0000000180015758     LIBCMT:winapinls.obj
 0002:00004768       ??_C@_1M@KDHIHAEC@?$AAf?$AAr?$AA?9?$AAc?$AAh?$AA?$AA@ 0000000180015768     LIBCMT:winapinls.obj
 0002:00004778       ??_C@_1M@MMBBFGAK@?$AAf?$AAr?$AA?9?$AAf?$AAr?$AA?$AA@ 0000000180015778     LIBCMT:winapinls.obj
 0002:00004788       ??_C@_1M@PAFNENNF@?$AAf?$AAr?$AA?9?$AAl?$AAu?$AA?$AA@ 0000000180015788     LIBCMT:winapinls.obj
 0002:00004798       ??_C@_1M@EOHDJGDD@?$AAf?$AAr?$AA?9?$AAm?$AAc?$AA?$AA@ 0000000180015798     LIBCMT:winapinls.obj
 0002:000047a8       ??_C@_1M@FAPLLOPF@?$AAg?$AAl?$AA?9?$AAe?$AAs?$AA?$AA@ 00000001800157a8     LIBCMT:winapinls.obj
 0002:000047b8       ??_C@_1M@FOPBFLOO@?$AAg?$AAu?$AA?9?$AAi?$AAn?$AA?$AA@ 00000001800157b8     LIBCMT:winapinls.obj
 0002:000047c8       ??_C@_1M@KBMCINPM@?$AAh?$AAe?$AA?9?$AAi?$AAl?$AA?$AA@ 00000001800157c8     LIBCMT:winapinls.obj
 0002:000047d8       ??_C@_1M@BBPHKFPJ@?$AAh?$AAi?$AA?9?$AAi?$AAn?$AA?$AA@ 00000001800157d8     LIBCMT:winapinls.obj
 0002:000047e8       ??_C@_1M@PMBNDPHD@?$AAh?$AAr?$AA?9?$AAb?$AAa?$AA?$AA@ 00000001800157e8     LIBCMT:winapinls.obj
 0002:000047f8       ??_C@_1M@BPCKOEGE@?$AAh?$AAr?$AA?9?$AAh?$AAr?$AA?$AA@ 00000001800157f8     LIBCMT:winapinls.obj
 0002:00004808       ??_C@_1M@GACBMHKE@?$AAh?$AAu?$AA?9?$AAh?$AAu?$AA?$AA@ 0000000180015808     LIBCMT:winapinls.obj
 0002:00004818       ??_C@_1M@MILPAJJC@?$AAh?$AAy?$AA?9?$AAa?$AAm?$AA?$AA@ 0000000180015818     LIBCMT:winapinls.obj
 0002:00004828       ??_C@_1M@BABBICEC@?$AAi?$AAd?$AA?9?$AAi?$AAd?$AA?$AA@ 0000000180015828     LIBCMT:winapinls.obj
 0002:00004838       ??_C@_1M@BIKNHHPF@?$AAi?$AAs?$AA?9?$AAi?$AAs?$AA?$AA@ 0000000180015838     LIBCMT:winapinls.obj
 0002:00004848       ??_C@_1M@NMPCJPHE@?$AAi?$AAt?$AA?9?$AAc?$AAh?$AA?$AA@ 0000000180015848     LIBCMT:winapinls.obj
 0002:00004858       ??_C@_1M@GHKGFEDF@?$AAi?$AAt?$AA?9?$AAi?$AAt?$AA?$AA@ 0000000180015858     LIBCMT:winapinls.obj
 0002:00004868       ??_C@_1M@NIEJCJJA@?$AAj?$AAa?$AA?9?$AAj?$AAp?$AA?$AA@ 0000000180015868     LIBCMT:winapinls.obj
 0002:00004878       ??_C@_1M@JILFNBIM@?$AAk?$AAa?$AA?9?$AAg?$AAe?$AA?$AA@ 0000000180015878     LIBCMT:winapinls.obj
 0002:00004888       ??_C@_1M@PACPMGPH@?$AAk?$AAk?$AA?9?$AAk?$AAz?$AA?$AA@ 0000000180015888     LIBCMT:winapinls.obj
 0002:00004898       ??_C@_1M@IELFGMHA@?$AAk?$AAn?$AA?9?$AAi?$AAn?$AA?$AA@ 0000000180015898     LIBCMT:winapinls.obj
 0002:000048a8       ??_C@_1O@IBBJHCH@?$AAk?$AAo?$AAk?$AA?9?$AAi?$AAn?$AA?$AA@ 00000001800158a8     LIBCMT:winapinls.obj
 0002:000048b8       ??_C@_1M@DMHAEOGC@?$AAk?$AAo?$AA?9?$AAk?$AAr?$AA?$AA@ 00000001800158b8     LIBCMT:winapinls.obj
 0002:000048c8       ??_C@_1M@HBAHBIGA@?$AAk?$AAy?$AA?9?$AAk?$AAg?$AA?$AA@ 00000001800158c8     LIBCMT:winapinls.obj
 0002:000048d8       ??_C@_1M@KPMILCJG@?$AAl?$AAt?$AA?9?$AAl?$AAt?$AA?$AA@ 00000001800158d8     LIBCMT:winapinls.obj
 0002:000048e8       ??_C@_1M@BDEKKCA@?$AAl?$AAv?$AA?9?$AAl?$AAv?$AA?$AA@ 00000001800158e8     LIBCMT:winapinls.obj
 0002:000048f8       ??_C@_1M@ELCKCCJJ@?$AAm?$AAi?$AA?9?$AAn?$AAz?$AA?$AA@ 00000001800158f8     LIBCMT:winapinls.obj
 0002:00004908       ??_C@_1M@CBOOLAPA@?$AAm?$AAk?$AA?9?$AAm?$AAk?$AA?$AA@ 0000000180015908     LIBCMT:winapinls.obj
 0002:00004918       ??_C@_1M@GPHNBJKN@?$AAm?$AAl?$AA?9?$AAi?$AAn?$AA?$AA@ 0000000180015918     LIBCMT:winapinls.obj
 0002:00004928       ??_C@_1M@PABJILIG@?$AAm?$AAn?$AA?9?$AAm?$AAn?$AA?$AA@ 0000000180015928     LIBCMT:winapinls.obj
 0002:00004938       ??_C@_1M@FGBKKIPG@?$AAm?$AAr?$AA?9?$AAi?$AAn?$AA?$AA@ 0000000180015938     LIBCMT:winapinls.obj
 0002:00004948       ??_C@_1M@NDBPDDAL@?$AAm?$AAs?$AA?9?$AAb?$AAn?$AA?$AA@ 0000000180015948     LIBCMT:winapinls.obj
 0002:00004958       ??_C@_1M@OPIHOOPI@?$AAm?$AAs?$AA?9?$AAm?$AAy?$AA?$AA@ 0000000180015958     LIBCMT:winapinls.obj
 0002:00004968       ??_C@_1M@PPDBCNFM@?$AAm?$AAt?$AA?9?$AAm?$AAt?$AA?$AA@ 0000000180015968     LIBCMT:winapinls.obj
 0002:00004978       ??_C@_1M@KDJDKMDD@?$AAn?$AAb?$AA?9?$AAn?$AAo?$AA?$AA@ 0000000180015978     LIBCMT:winapinls.obj
 0002:00004988       ??_C@_1M@KFCFLMJP@?$AAn?$AAl?$AA?9?$AAb?$AAe?$AA?$AA@ 0000000180015988     LIBCMT:winapinls.obj
 0002:00004998       ??_C@_1M@KPOPDDGO@?$AAn?$AAl?$AA?9?$AAn?$AAl?$AA?$AA@ 0000000180015998     LIBCMT:winapinls.obj
 0002:000049a8       ??_C@_1M@LJKPEMLN@?$AAn?$AAn?$AA?9?$AAn?$AAo?$AA?$AA@ 00000001800159a8     LIBCMT:winapinls.obj
 0002:000049b8       ??_C@_1M@BDGHHBFL@?$AAn?$AAs?$AA?9?$AAz?$AAa?$AA?$AA@ 00000001800159b8     LIBCMT:winapinls.obj
 0002:000049c8       ??_C@_1M@IDEHOAP@?$AAp?$AAa?$AA?9?$AAi?$AAn?$AA?$AA@ 00000001800159c8     LIBCMT:winapinls.obj
 0002:000049d8       ??_C@_1M@HDBKGOGH@?$AAp?$AAl?$AA?9?$AAp?$AAl?$AA?$AA@ 00000001800159d8     LIBCMT:winapinls.obj
 0002:000049e8       ??_C@_1M@LJLLCMEH@?$AAp?$AAt?$AA?9?$AAb?$AAr?$AA?$AA@ 00000001800159e8     LIBCMT:winapinls.obj
 0002:000049f8       ??_C@_1M@NCMONAAL@?$AAp?$AAt?$AA?9?$AAp?$AAt?$AA?$AA@ 00000001800159f8     LIBCMT:winapinls.obj
 0002:00004a08       ??_C@_1O@EAKMAJDN@?$AAq?$AAu?$AAz?$AA?9?$AAb?$AAo?$AA?$AA@ 0000000180015a08     LIBCMT:winapinls.obj
 0002:00004a18       ??_C@_1O@BHHPIGDN@?$AAq?$AAu?$AAz?$AA?9?$AAe?$AAc?$AA?$AA@ 0000000180015a18     LIBCMT:winapinls.obj
 0002:00004a28       ??_C@_1O@GBAPEKMJ@?$AAq?$AAu?$AAz?$AA?9?$AAp?$AAe?$AA?$AA@ 0000000180015a28     LIBCMT:winapinls.obj
 0002:00004a38       ??_C@_1M@CLGLEFBO@?$AAr?$AAo?$AA?9?$AAr?$AAo?$AA?$AA@ 0000000180015a38     LIBCMT:winapinls.obj
 0002:00004a48       ??_C@_1M@CEEDODME@?$AAr?$AAu?$AA?9?$AAr?$AAu?$AA?$AA@ 0000000180015a48     LIBCMT:winapinls.obj
 0002:00004a58       ??_C@_1M@HPKKKMPP@?$AAs?$AAa?$AA?9?$AAi?$AAn?$AA?$AA@ 0000000180015a58     LIBCMT:winapinls.obj
 0002:00004a68       ??_C@_1M@BKMAIGOJ@?$AAs?$AAe?$AA?9?$AAf?$AAi?$AA?$AA@ 0000000180015a68     LIBCMT:winapinls.obj
 0002:00004a78       ??_C@_1M@NDPIFLFI@?$AAs?$AAe?$AA?9?$AAn?$AAo?$AA?$AA@ 0000000180015a78     LIBCMT:winapinls.obj
 0002:00004a88       ??_C@_1M@DANKKHJ@?$AAs?$AAe?$AA?9?$AAs?$AAe?$AA?$AA@ 0000000180015a88     LIBCMT:winapinls.obj
 0002:00004a98       ??_C@_1M@PNBLONPJ@?$AAs?$AAk?$AA?9?$AAs?$AAk?$AA?$AA@ 0000000180015a98     LIBCMT:winapinls.obj
 0002:00004aa8       ??_C@_1M@LFMODOAL@?$AAs?$AAl?$AA?9?$AAs?$AAi?$AA?$AA@ 0000000180015aa8     LIBCMT:winapinls.obj
 0002:00004ab8       ??_C@_1O@DFKOMPG@?$AAs?$AAm?$AAa?$AA?9?$AAn?$AAo?$AA?$AA@ 0000000180015ab8     LIBCMT:winapinls.obj
 0002:00004ac8       ??_C@_1O@NDKPBNNH@?$AAs?$AAm?$AAa?$AA?9?$AAs?$AAe?$AA?$AA@ 0000000180015ac8     LIBCMT:winapinls.obj
 0002:00004ad8       ??_C@_1O@PLLKBHAB@?$AAs?$AAm?$AAj?$AA?9?$AAn?$AAo?$AA?$AA@ 0000000180015ad8     LIBCMT:winapinls.obj
 0002:00004ae8       ??_C@_1O@CLEPOGCA@?$AAs?$AAm?$AAj?$AA?9?$AAs?$AAe?$AA?$AA@ 0000000180015ae8     LIBCMT:winapinls.obj
 0002:00004af8       ??_C@_1O@DLGJGKMK@?$AAs?$AAm?$AAn?$AA?9?$AAf?$AAi?$AA?$AA@ 0000000180015af8     LIBCMT:winapinls.obj
 0002:00004b08       ??_C@_1O@OJDJGAJC@?$AAs?$AAm?$AAs?$AA?9?$AAf?$AAi?$AA?$AA@ 0000000180015b08     LIBCMT:winapinls.obj
 0002:00004b18       ??_C@_1M@BOFOGHPB@?$AAs?$AAq?$AA?9?$AAa?$AAl?$AA?$AA@ 0000000180015b18     LIBCMT:winapinls.obj
 0002:00004b28       ??_C@_1BG@LJBBIPGB@?$AAs?$AAr?$AA?9?$AAb?$AAa?$AA?9?$AAc?$AAy?$AAr?$AAl?$AA?$AA@ 0000000180015b28     LIBCMT:winapinls.obj
 0002:00004b40       ??_C@_1BG@JLBENFOE@?$AAs?$AAr?$AA?9?$AAb?$AAa?$AA?9?$AAl?$AAa?$AAt?$AAn?$AA?$AA@ 0000000180015b40     LIBCMT:winapinls.obj
 0002:00004b58       ??_C@_1BG@KODPNHE@?$AAs?$AAr?$AA?9?$AAs?$AAp?$AA?9?$AAc?$AAy?$AAr?$AAl?$AA?$AA@ 0000000180015b58     LIBCMT:winapinls.obj
 0002:00004b70       ??_C@_1BG@CIOGKHPB@?$AAs?$AAr?$AA?9?$AAs?$AAp?$AA?9?$AAl?$AAa?$AAt?$AAn?$AA?$AA@ 0000000180015b70     LIBCMT:winapinls.obj
 0002:00004b88       ??_C@_1M@NGFJLMAC@?$AAs?$AAv?$AA?9?$AAf?$AAi?$AA?$AA@ 0000000180015b88     LIBCMT:winapinls.obj
 0002:00004b98       ??_C@_1M@MPJEJAJC@?$AAs?$AAv?$AA?9?$AAs?$AAe?$AA?$AA@ 0000000180015b98     LIBCMT:winapinls.obj
 0002:00004ba8       ??_C@_1M@MPNDHLFK@?$AAs?$AAw?$AA?9?$AAk?$AAe?$AA?$AA@ 0000000180015ba8     LIBCMT:winapinls.obj
 0002:00004bb8       ??_C@_1O@KOHBJJI@?$AAs?$AAy?$AAr?$AA?9?$AAs?$AAy?$AA?$AA@ 0000000180015bb8     LIBCMT:winapinls.obj
 0002:00004bc8       ??_C@_1M@LDCEFHA@?$AAt?$AAa?$AA?9?$AAi?$AAn?$AA?$AA@ 0000000180015bc8     LIBCMT:winapinls.obj
 0002:00004bd8       ??_C@_1M@CNJOFAK@?$AAt?$AAe?$AA?9?$AAi?$AAn?$AA?$AA@ 0000000180015bd8     LIBCMT:winapinls.obj
 0002:00004be8       ??_C@_1M@GNAECACD@?$AAt?$AAh?$AA?9?$AAt?$AAh?$AA?$AA@ 0000000180015be8     LIBCMT:winapinls.obj
 0002:00004bf8       ??_C@_1M@CHBIHOJO@?$AAt?$AAn?$AA?9?$AAz?$AAa?$AA?$AA@ 0000000180015bf8     LIBCMT:winapinls.obj
 0002:00004c08       ??_C@_1M@GCCMIGPJ@?$AAt?$AAr?$AA?9?$AAt?$AAr?$AA?$AA@ 0000000180015c08     LIBCMT:winapinls.obj
 0002:00004c18       ??_C@_1M@CELMCNBK@?$AAt?$AAt?$AA?9?$AAr?$AAu?$AA?$AA@ 0000000180015c18     LIBCMT:winapinls.obj
 0002:00004c28       ??_C@_1M@KLMCELGA@?$AAu?$AAk?$AA?9?$AAu?$AAa?$AA?$AA@ 0000000180015c28     LIBCMT:winapinls.obj
 0002:00004c38       ??_C@_1M@EPAJJAJF@?$AAu?$AAr?$AA?9?$AAp?$AAk?$AA?$AA@ 0000000180015c38     LIBCMT:winapinls.obj
 0002:00004c48       ??_C@_1BG@GEGPMCDJ@?$AAu?$AAz?$AA?9?$AAu?$AAz?$AA?9?$AAc?$AAy?$AAr?$AAl?$AA?$AA@ 0000000180015c48     LIBCMT:winapinls.obj
 0002:00004c60       ??_C@_1BG@EGGKJILM@?$AAu?$AAz?$AA?9?$AAu?$AAz?$AA?9?$AAl?$AAa?$AAt?$AAn?$AA?$AA@ 0000000180015c60     LIBCMT:winapinls.obj
 0002:00004c78       ??_C@_1M@GFOCLFF@?$AAv?$AAi?$AA?9?$AAv?$AAn?$AA?$AA@ 0000000180015c78     LIBCMT:winapinls.obj
 0002:00004c88       ??_C@_1M@CPAMEDFI@?$AAx?$AAh?$AA?9?$AAz?$AAa?$AA?$AA@ 0000000180015c88     LIBCMT:winapinls.obj
 0002:00004c98       ??_C@_1O@EBKIFIGN@?$AAz?$AAh?$AA?9?$AAc?$AAh?$AAs?$AA?$AA@ 0000000180015c98     LIBCMT:winapinls.obj
 0002:00004ca8       ??_C@_1O@NMHPGANE@?$AAz?$AAh?$AA?9?$AAc?$AAh?$AAt?$AA?$AA@ 0000000180015ca8     LIBCMT:winapinls.obj
 0002:00004cb8       ??_C@_1M@LPINJOMC@?$AAz?$AAh?$AA?9?$AAc?$AAn?$AA?$AA@ 0000000180015cb8     LIBCMT:winapinls.obj
 0002:00004cc8       ??_C@_1M@OCJEJODD@?$AAz?$AAh?$AA?9?$AAh?$AAk?$AA?$AA@ 0000000180015cc8     LIBCMT:winapinls.obj
 0002:00004cd8       ??_C@_1M@DNDLJINH@?$AAz?$AAh?$AA?9?$AAm?$AAo?$AA?$AA@ 0000000180015cd8     LIBCMT:winapinls.obj
 0002:00004ce8       ??_C@_1M@MBFDNDND@?$AAz?$AAh?$AA?9?$AAs?$AAg?$AA?$AA@ 0000000180015ce8     LIBCMT:winapinls.obj
 0002:00004cf8       ??_C@_1M@IMEPLEPE@?$AAz?$AAh?$AA?9?$AAt?$AAw?$AA?$AA@ 0000000180015cf8     LIBCMT:winapinls.obj
 0002:00004d08       ??_C@_1M@BBGHNHJP@?$AAz?$AAu?$AA?9?$AAz?$AAa?$AA?$AA@ 0000000180015d08     LIBCMT:winapinls.obj
 0002:00004d18       ??_C@_0M@HHGEPIBF@CreateFile2?$AA@ 0000000180015d18     LIBCMT:wopen.obj
 0002:00004d28       ??_C@_1BA@BALFACEM@?$AAC?$AAO?$AAN?$AAO?$AAU?$AAT?$AA$?$AA?$AA@ 0000000180015d28     LIBCMT:initcon.obj
 0002:00004d40       __newctype                 0000000180015d40     LIBCMT:ctype.obj
 0002:00005040       _wctype                    0000000180016040     LIBCMT:ctype.obj
 0002:00005250       __newclmap                 0000000180016250     LIBCMT:ctype.obj
 0002:000053d0       __newcumap                 00000001800163d0     LIBCMT:ctype.obj
 0002:000055d0       ??_C@_06PGGFOGJG@1?$CDSNAN?$AA@ 00000001800165d0     LIBCMT:x10fout.obj
 0002:000055d8       ??_C@_05PHHOCPM@1?$CDIND?$AA@ 00000001800165d8     LIBCMT:x10fout.obj
 0002:000055e0       ??_C@_05DNEBIAHO@1?$CDINF?$AA@ 00000001800165e0     LIBCMT:x10fout.obj
 0002:000055e8       ??_C@_06IMKFLFPG@1?$CDQNAN?$AA@ 00000001800165e8     LIBCMT:x10fout.obj
 0002:000055f0       __rg_language_count        00000001800165f0     LIBCMT:getqloc.obj
 0002:000055f4       __rg_country_count         00000001800165f4     LIBCMT:getqloc.obj
 0002:000055f8       ??_C@_02DKCKIIND@?$CFs?$AA@ 00000001800165f8     heapdump.obj
 0002:000055fc       ??_C@_01NOFIACDB@w?$AA@    00000001800165fc     heapdump.obj
 0002:00005600       ??_C@_0BO@DAEIHBEC@heapdump?9?$CFlu?4?$CFlu?4heapsnapshot?$AA@ 0000000180016600     heapdump.obj
 0002:00005620       ??_C@_09ENBPCHCK@kForkFlag?$AA@ 0000000180016620     heapdump.obj
 0002:00005630       ??_C@_0M@HLDKAKLI@kSignalFlag?$AA@ 0000000180016630     heapdump.obj
 0002:00005640       ??_C@_09JPIPCLGE@configure?$AA@ 0000000180016640     heapdump.obj
 0002:00005650       ??_C@_0O@FHOFBOBI@writeSnapshot?$AA@ 0000000180016650     heapdump.obj
 0002:00005660       ??_C@_0BD@BFCMJEFM@?4?4?2src?2heapdump?4cc?$AA@ 0000000180016660     heapdump.obj
 0002:00005674       ??_C@_05ONJGPJEO@addon?$AA@ 0000000180016674     heapdump.obj
 0002:00005680       ??_7FileOutputStream@?A0x6869d10c@@6B@ 0000000180016680     heapdump.obj
 0002:000056b0       _load_config_used          00000001800166b0     LIBCMT:loadcfg.obj
 0002:000057d8       __rtc_iaa                  00000001800167d8     LIBCMT:initsect.obj
 0002:000057e0       __rtc_izz                  00000001800167e0     LIBCMT:initsect.obj
 0002:000057e8       __rtc_taa                  00000001800167e8     LIBCMT:initsect.obj
 0002:000057f0       __rtc_tzz                  00000001800167f0     LIBCMT:initsect.obj
 0002:000063c0       __IMPORT_DESCRIPTOR_node   00000001800173c0     node:node.exe
 0002:000063d4       __IMPORT_DESCRIPTOR_KERNEL32 00000001800173d4     kernel32:KERNEL32.dll
 0002:000063e8       __NULL_IMPORT_DESCRIPTOR   00000001800173e8     node:node.exe
 0003:00000000       __security_cookie          0000000180019000     LIBCMT:gs_cookie.obj
 0003:00000008       __security_cookie_complement 0000000180019008     LIBCMT:gs_cookie.obj
 0003:00000180       _iob                       0000000180019180     LIBCMT:_file.obj
 0003:00000544       _fltused                   0000000180019544     LIBCMT:fpinit.obj
 0003:00000548       _ldused                    0000000180019548     LIBCMT:fpinit.obj
 0003:00000550       __nullstring               0000000180019550     LIBCMT:output.obj
 0003:00000558       __wnullstring              0000000180019558     LIBCMT:output.obj
 0003:00000560       __flsindex                 0000000180019560     LIBCMT:tidtable.obj
 0003:00000570       __badioinfo                0000000180019570     LIBCMT:ioinit.obj
 0003:00000810       _cfltcvt_tab               0000000180019810     LIBCMT:cmiscdat.obj
 0003:00000860       _mbctype                   0000000180019860     LIBCMT:mbctype.obj
 0003:00000970       _mbcasemap                 0000000180019970     LIBCMT:mbctype.obj
 0003:00000a70       __initialmbcinfo           0000000180019a70     LIBCMT:mbctype.obj
 0003:00000d90       __ptmbcinfo                0000000180019d90     LIBCMT:mbctype.obj
 0003:00000d98       __isa_available            0000000180019d98     LIBCMT:cpu_disp.obj
 0003:00000d9c       __isa_enabled              0000000180019d9c     LIBCMT:cpu_disp.obj
 0003:00000f70       _matherr_flag              0000000180019f70     LIBCMT:matherr.obj
 0003:00000f80       __mb_cur_max               0000000180019f80     LIBCMT:nlsdata.obj
 0003:00000f84       __wclocalestr              0000000180019f84     LIBCMT:nlsdata.obj
 0003:00000f90       __lc_time_c                0000000180019f90     LIBCMT:nlsdata.obj
 0003:00001250       __ptlocinfo                000000018001a250     LIBCMT:nlsdata.obj
 0003:00001260       __initiallocinfo           000000018001a260     LIBCMT:nlsdata.obj
 0003:000013b8       __initiallocalestructinfo  000000018001a3b8     LIBCMT:nlsdata.obj
 0003:000013c8       __globallocalestatus       000000018001a3c8     LIBCMT:glstatus.obj
 0003:000013cc       __abort_behavior           000000018001a3cc     LIBCMT:abort.obj
 0003:000013d0       _confh                     000000018001a3d0     LIBCMT:initcon.obj
 0003:000013d8       _d_inf                     000000018001a3d8     LIBCMT:util.obj
 0003:000013e0       _d_ind                     000000018001a3e0     LIBCMT:util.obj
 0003:000013e8       _d_max                     000000018001a3e8     LIBCMT:util.obj
 0003:000013f0       _d_min                     000000018001a3f0     LIBCMT:util.obj
 0003:000013f8       _d_mzero                   000000018001a3f8     LIBCMT:util.obj
 0003:00001400       __lconv_c                  000000018001a400     LIBCMT:lconv.obj
 0003:00001498       __lconv_static_decimal     000000018001a498     LIBCMT:lconv.obj
 0003:0000149c       __lconv_static_W_decimal   000000018001a49c     LIBCMT:lconv.obj
 0003:000014a0       __lconv                    000000018001a4a0     LIBCMT:lconv.obj
 0003:000014a8       _pctype                    000000018001a4a8     LIBCMT:ctype.obj
 0003:000014b0       _pwctype                   000000018001a4b0     LIBCMT:ctype.obj
 0003:000014c0       _lookuptrailbytes          000000018001a4c0     LIBCMT:read.obj
 0003:000015f0       _pow10pos                  000000018001a5f0     LIBCMT:constpow.obj
 0003:00001750       _pow10neg                  000000018001a750     LIBCMT:constpow.obj
 0003:000018b0       _HUGE                      000000018001a8b0     LIBCMT:huge.obj
 0003:00001908       _aenvptr                   000000018001a908     LIBCMT:dllcrt0.obj
 0003:00001910       _wenvptr                   000000018001a910     LIBCMT:dllcrt0.obj
 0003:00001e98       __pInvalidArgHandler       000000018001ae98     LIBCMT:invarg.obj
 0003:00001ea0       _C_Exit_Done               000000018001aea0     LIBCMT:crt0dat.obj
 0003:00001ea4       __argc                     000000018001aea4     LIBCMT:crt0dat.obj
 0003:00001ea8       __argv                     000000018001aea8     LIBCMT:crt0dat.obj
 0003:00001eb0       __wargv                    000000018001aeb0     LIBCMT:crt0dat.obj
 0003:00001eb8       _environ                   000000018001aeb8     LIBCMT:crt0dat.obj
 0003:00001ec0       _wenviron                  000000018001aec0     LIBCMT:crt0dat.obj
 0003:00001ec8       _pgmptr                    000000018001aec8     LIBCMT:crt0dat.obj
 0003:00001ed0       _wpgmptr                   000000018001aed0     LIBCMT:crt0dat.obj
 0003:00001ed8       _umaskval                  000000018001aed8     LIBCMT:crt0dat.obj
 0003:00001edc       _exitflag                  000000018001aedc     LIBCMT:crt0dat.obj
 0003:00001ee0       _C_Termination_Done        000000018001aee0     LIBCMT:crt0dat.obj
 0003:00001ee8       __winitenv                 000000018001aee8     LIBCMT:crt0dat.obj
 0003:00001ef0       __initenv                  000000018001aef0     LIBCMT:crt0dat.obj
 0003:00001ef8       _maxwait                   000000018001aef8     LIBCMT:crtheap.obj
 0003:00001efc       _cflush                    000000018001aefc     LIBCMT:_file.obj
 0003:00001f00       __fastflag                 000000018001af00     LIBCMT:fpinit.obj
 0003:00001f08       _crtheap                   000000018001af08     LIBCMT:heapinit.obj
 0003:00001f10       __pioinfo                  000000018001af10     LIBCMT:ioinit.obj
 0003:00002450       __app_type                 000000018001b450     LIBCMT:crt0msg.obj
 0003:00002a88       ?__pInconsistency@@3P6AXXZEA 000000018001ba88     LIBCMT:hooks.obj
 0003:00002a90       ?_pnhHeap@@3P6AH_K@ZEA     000000018001ba90     LIBCMT:handler.obj
 0003:00002a98       __pPurecall                000000018001ba98     LIBCMT:inithelp.obj
 0003:00002ad0       __mbcodepage               000000018001bad0     LIBCMT:mbctype.obj
 0003:00002ad4       __ismbcodepage             000000018001bad4     LIBCMT:mbctype.obj
 0003:00002ad8       __mbulinfo                 000000018001bad8     LIBCMT:mbctype.obj
 0003:00002ae8       __mblocalename             000000018001bae8     LIBCMT:mbctype.obj
 0003:00002af8       _stdbuf                    000000018001baf8     LIBCMT:_sftbuf.obj
 0003:00002b08       _commode                   000000018001bb08     LIBCMT:ncommode.obj
 0003:00002b0c       __favor                    000000018001bb0c     LIBCMT:cpu_disp.obj
 0003:00002b18       __error_mode               000000018001bb18     LIBCMT:errmode.obj
 0003:00002b50       _newmode                   000000018001bb50     LIBCMT:_newmode.obj
 0003:00002b54       _outputformat              000000018001bb54     LIBCMT:outputformat.obj
 0003:00002b58       __lconv_static_null        000000018001bb58     LIBCMT:lconv.obj
 0003:00002b5c       __lconv_static_W_null      000000018001bb5c     LIBCMT:lconv.obj
 0003:00002b60       __locale_changed           000000018001bb60     LIBCMT:wsetloca.obj
 0003:00002b64       _fmode                     000000018001bb64     LIBCMT:txtmode.obj
 0003:00002b78       _debugger_hook_dummy       000000018001bb78     <common>
 0003:00002b80       encodedKERNEL32Functions   000000018001bb80     <common>
 0003:00002c88       _nhandle                   000000018001bc88     <common>
 0003:00002c90       __piob                     000000018001bc90     <common>
 0003:00002c98       _nstream                   000000018001bc98     <common>
 0003:00002ca0       _bufin                     000000018001bca0     <common>
 0003:00003ca0       _pDestructExceptionObject  000000018001cca0     <common>
 0003:00003ca8       __dyn_tls_init_callback    000000018001cca8     <common>
 0003:00003cb0       __onexitend                000000018001ccb0     <common>
 0003:00003cb8       __onexitbegin              000000018001ccb8     <common>
 0003:00003cc0       __mbctype_initialized      000000018001ccc0     <common>
 0003:00003cc4       __env_initialized          000000018001ccc4     <common>
 0003:00003cc8       _acmdln                    000000018001ccc8     <common>

 entry point at        0001:00000f24

 Static symbols

 0000:fffe0000       .debug$S                   0000000180000000     kernel32:KERNEL32.dll
 0000:fffe0000       .debug$S                   0000000180000000     node:node.exe
 0000:fffe0000       .debug$S                   0000000180000000     node:node.exe
 0000:fffe0000       .debug$S                   0000000180000000     node:node.exe
 0000:fffe0000       .debug$S                   0000000180000000     node:node.exe
 0000:fffe0000       .debug$S                   0000000180000000     node:node.exe
 0000:fffe0000       .debug$S                   0000000180000000     node:node.exe
 0000:fffe0000       .debug$S                   0000000180000000     node:node.exe
 0000:fffe0000       .debug$S                   0000000180000000     node:node.exe
 0000:fffe0000       .debug$S                   0000000180000000     node:node.exe
 0000:fffe0000       .debug$S                   0000000180000000     node:node.exe
 0000:fffe0000       .debug$S                   0000000180000000     node:node.exe
 0000:fffe0000       .debug$S                   0000000180000000     node:node.exe
 0000:fffe0000       .debug$S                   0000000180000000     node:node.exe
 0000:fffe0000       .debug$S                   0000000180000000     node:node.exe
 0000:fffe0000       .debug$S                   0000000180000000     node:node.exe
 0000:fffe0000       .debug$S                   0000000180000000     node:node.exe
 0000:fffe0000       .debug$S                   0000000180000000     node:node.exe
 0000:fffe0000       .debug$S                   0000000180000000     node:node.exe
 0000:fffe0000       .debug$S                   0000000180000000     node:node.exe
 0000:fffe0000       .debug$S                   0000000180000000     node:node.exe
 0000:fffe0000       .debug$S                   0000000180000000     node:node.exe
 0000:fffe0000       .debug$S                   0000000180000000     node:node.exe
 0000:fffe0000       .debug$S                   0000000180000000     node:node.exe
 0000:fffe0000       .debug$S                   0000000180000000     node:node.exe
 0000:fffe0000       .debug$S                   0000000180000000     node:node.exe
 0000:fffe0000       .debug$S                   0000000180000000     node:node.exe
 0000:fffe0000       .debug$S                   0000000180000000     node:node.exe
 0000:fffe0000       .debug$S                   0000000180000000     node:node.exe
 0000:fffe0000       .debug$S                   0000000180000000     node:node.exe
 0000:fffe0000       .debug$S                   0000000180000000     node:node.exe
 0000:fffe0000       .debug$S                   0000000180000000     node:node.exe
 0000:fffe0000       .debug$S                   0000000180000000     node:node.exe
 0000:fffe0000       .debug$S                   0000000180000000     node:node.exe
 0000:fffe0000       .debug$S                   0000000180000000     kernel32:KERNEL32.dll
 0000:fffe0000       .debug$S                   0000000180000000     kernel32:KERNEL32.dll
 0000:fffe0000       .debug$S                   0000000180000000     kernel32:KERNEL32.dll
 0000:fffe0000       .debug$S                   0000000180000000     kernel32:KERNEL32.dll
 0000:fffe0000       .debug$S                   0000000180000000     kernel32:KERNEL32.dll
 0000:fffe0000       .debug$S                   0000000180000000     kernel32:KERNEL32.dll
 0000:fffe0000       .debug$S                   0000000180000000     kernel32:KERNEL32.dll
 0000:fffe0000       .debug$S                   0000000180000000     kernel32:KERNEL32.dll
 0000:fffe0000       .debug$S                   0000000180000000     kernel32:KERNEL32.dll
 0000:fffe0000       .debug$S                   0000000180000000     kernel32:KERNEL32.dll
 0000:fffe0000       .debug$S                   0000000180000000     kernel32:KERNEL32.dll
 0000:fffe0000       .debug$S                   0000000180000000     kernel32:KERNEL32.dll
 0000:fffe0000       .debug$S                   0000000180000000     kernel32:KERNEL32.dll
 0000:fffe0000       .debug$S                   0000000180000000     kernel32:KERNEL32.dll
 0000:fffe0000       .debug$S                   0000000180000000     kernel32:KERNEL32.dll
 0000:fffe0000       .debug$S                   0000000180000000     kernel32:KERNEL32.dll
 0000:fffe0000       .debug$S                   0000000180000000     kernel32:KERNEL32.dll
 0000:fffe0000       .debug$S                   0000000180000000     kernel32:KERNEL32.dll
 0000:fffe0000       .debug$S                   0000000180000000     kernel32:KERNEL32.dll
 0000:fffe0000       .debug$S                   0000000180000000     kernel32:KERNEL32.dll
 0000:fffe0000       .debug$S                   0000000180000000     kernel32:KERNEL32.dll
 0000:fffe0000       .debug$S                   0000000180000000     kernel32:KERNEL32.dll
 0000:fffe0000       .debug$S                   0000000180000000     kernel32:KERNEL32.dll
 0000:fffe0000       .debug$S                   0000000180000000     kernel32:KERNEL32.dll
 0000:fffe0000       .debug$S                   0000000180000000     kernel32:KERNEL32.dll
 0000:fffe0000       .debug$S                   0000000180000000     kernel32:KERNEL32.dll
 0000:fffe0000       .debug$S                   0000000180000000     kernel32:KERNEL32.dll
 0000:fffe0000       .debug$S                   0000000180000000     kernel32:KERNEL32.dll
 0000:fffe0000       .debug$S                   0000000180000000     kernel32:KERNEL32.dll
 0000:fffe0000       .debug$S                   0000000180000000     kernel32:KERNEL32.dll
 0000:fffe0000       .debug$S                   0000000180000000     kernel32:KERNEL32.dll
 0000:fffe0000       .debug$S                   0000000180000000     kernel32:KERNEL32.dll
 0000:fffe0000       .debug$S                   0000000180000000     kernel32:KERNEL32.dll
 0000:fffe0000       .debug$S                   0000000180000000     kernel32:KERNEL32.dll
 0000:fffe0000       .debug$S                   0000000180000000     kernel32:KERNEL32.dll
 0000:fffe0000       .debug$S                   0000000180000000     kernel32:KERNEL32.dll
 0000:fffe0000       .debug$S                   0000000180000000     kernel32:KERNEL32.dll
 0000:fffe0000       .debug$S                   0000000180000000     kernel32:KERNEL32.dll
 0000:fffe0000       .debug$S                   0000000180000000     kernel32:KERNEL32.dll
 0000:fffe0000       .debug$S                   0000000180000000     kernel32:KERNEL32.dll
 0000:fffe0000       .debug$S                   0000000180000000     kernel32:KERNEL32.dll
 0000:fffe0000       .debug$S                   0000000180000000     kernel32:KERNEL32.dll
 0000:fffe0000       .debug$S                   0000000180000000     kernel32:KERNEL32.dll
 0000:fffe0000       .debug$S                   0000000180000000     kernel32:KERNEL32.dll
 0000:fffe0000       .debug$S                   0000000180000000     kernel32:KERNEL32.dll
 0000:fffe0000       .debug$S                   0000000180000000     kernel32:KERNEL32.dll
 0000:fffe0000       .debug$S                   0000000180000000     kernel32:KERNEL32.dll
 0000:fffe0000       .debug$S                   0000000180000000     kernel32:KERNEL32.dll
 0000:fffe0000       .debug$S                   0000000180000000     kernel32:KERNEL32.dll
 0000:fffe0000       .debug$S                   0000000180000000     kernel32:KERNEL32.dll
 0000:fffe0000       .debug$S                   0000000180000000     kernel32:KERNEL32.dll
 0000:fffe0000       .debug$S                   0000000180000000     kernel32:KERNEL32.dll
 0000:fffe0000       .debug$S                   0000000180000000     kernel32:KERNEL32.dll
 0000:fffe0000       .debug$S                   0000000180000000     kernel32:KERNEL32.dll
 0000:fffe0000       .debug$S                   0000000180000000     kernel32:KERNEL32.dll
 0000:fffe0000       .debug$S                   0000000180000000     kernel32:KERNEL32.dll
 0000:fffe0000       .debug$S                   0000000180000000     kernel32:KERNEL32.dll
 0000:fffe0000       .debug$S                   0000000180000000     kernel32:KERNEL32.dll
 0000:fffe0000       .debug$S                   0000000180000000     kernel32:KERNEL32.dll
 0000:fffe0000       .debug$S                   0000000180000000     kernel32:KERNEL32.dll
 0000:fffe0000       .debug$S                   0000000180000000     kernel32:KERNEL32.dll
 0000:fffe0000       .debug$S                   0000000180000000     kernel32:KERNEL32.dll
 0000:fffe0000       .debug$S                   0000000180000000     kernel32:KERNEL32.dll
 0000:fffe0000       .debug$S                   0000000180000000     kernel32:KERNEL32.dll
 0000:fffe0000       .debug$S                   0000000180000000     kernel32:KERNEL32.dll
 0000:fffe0000       .debug$S                   0000000180000000     kernel32:KERNEL32.dll
 0000:fffe0000       .debug$S                   0000000180000000     kernel32:KERNEL32.dll
 0000:fffe0000       .debug$S                   0000000180000000     kernel32:KERNEL32.dll
 0000:fffe0000       .debug$S                   0000000180000000     kernel32:KERNEL32.dll
 0000:fffe0000       .debug$S                   0000000180000000     kernel32:KERNEL32.dll
 0000:fffe0000       .debug$S                   0000000180000000     kernel32:KERNEL32.dll
 0000:fffe0000       .debug$S                   0000000180000000     kernel32:KERNEL32.dll
 0000:fffe0000       .debug$S                   0000000180000000     kernel32:KERNEL32.dll
 0000:fffe0000       .debug$S                   0000000180000000     kernel32:KERNEL32.dll
 0000:fffe0000       .debug$S                   0000000180000000     kernel32:KERNEL32.dll
 0000:fffe0000       .debug$S                   0000000180000000     kernel32:KERNEL32.dll
 0000:fffe0000       .debug$S                   0000000180000000     kernel32:KERNEL32.dll
 0000:fffe0000       .debug$S                   0000000180000000     kernel32:KERNEL32.dll
 0000:fffe0000       .debug$S                   0000000180000000     kernel32:KERNEL32.dll
 0000:fffe0000       .debug$S                   0000000180000000     kernel32:KERNEL32.dll
 0000:fffe0000       .debug$S                   0000000180000000     kernel32:KERNEL32.dll
 0001:00000000       ??__Epiecewise_construct@std@@YAXXZ 0000000180001000 f   * CIL library *:* CIL module *
 0001:00000010       ??__Eallocator_arg@std@@YAXXZ 0000000180001010 f   * CIL library *:* CIL module *
 0001:00000020       ??__Eon_complete_callback@?A0x6869d10c@@YAXXZ 0000000180001020 f   * CIL library *:* CIL module *
 0001:000006b0       _register_addon            00000001800016b0 f   * CIL library *:* CIL module *
 0001:000006d0       $$000000                   00000001800016d0     LIBCMT:amdsecgs.obj
 0001:00000f64       __DllMainCRTStartup        0000000180001f64 f   LIBCMT:dllcrt0.obj
 0001:00001810       _initterm                  0000000180002810 f   LIBCMT:crt0dat.obj
 0001:000018c4       doexit                     00000001800028c4 f   LIBCMT:crt0dat.obj
 0001:000023d0       $$000000                   00000001800033d0     LIBCMT:jmpuwind.obj
 0001:00002640       $$000000                   0000000180003640     LIBCMT:memcpy.obj
 0001:00002730       MoveSmall                  0000000180003730     LIBCMT:memcpy.obj
 0001:00003564       flsall                     0000000180004564 f   LIBCMT:fflush.obj
 0001:0000497c       write_char                 000000018000597c f   LIBCMT:outputp.obj
 0001:000049c4       write_multi_char           00000001800059c4 f   LIBCMT:outputp.obj
 0001:00004a18       write_string               0000000180005a18 f   LIBCMT:outputp.obj
 0001:00004ab0       $$000000                   0000000180005ab0     LIBCMT:memset.obj
 0001:00004c55       MsetTab                    0000000180005c55     LIBCMT:memset.obj
 0001:000058c8       parse_cmdline              00000001800068c8 f   LIBCMT:stdargv.obj
 0001:00006d94       ?getSystemCP@@YAHH@Z       0000000180007d94 f   LIBCMT:mbctype.obj
 0001:00006e14       ?setSBCS@@YAXPEAUthreadmbcinfostruct@@@Z 0000000180007e14 f   LIBCMT:mbctype.obj
 0001:00006ea4       ?setSBUpLow@@YAXPEAUthreadmbcinfostruct@@@Z 0000000180007ea4 f   LIBCMT:mbctype.obj
 0001:00008840       $$000000                   0000000180009840     LIBCMT:chkstk.obj
 0001:00008980       $$000000                   0000000180009980     LIBCMT:fpsr.obj
 0001:00008e34       _cftoe2_l                  0000000180009e34 f   LIBCMT:cvt.obj
 0001:00009128       _cftof2_l                  000000018000a128 f   LIBCMT:cvt.obj
 0001:000099c0       $$000000                   000000018000a9c0     LIBCMT:strlen.obj
 0001:00009c30       ?strtoxl@@YAKPEAUlocaleinfo_struct@@PEBDPEAPEBDHH@Z 000000018000ac30 f   LIBCMT:strtol.obj
 0001:00009e9c       ?x_ismbbtype_l@@YAHPEAUlocaleinfo_struct@@IHH@Z 000000018000ae9c f   LIBCMT:ismbbyte.obj
 0001:0000a62c       ?__crtLCMapStringA_stat@@YAHPEAUlocaleinfo_struct@@PEB_WKPEBDHPEADHHH@Z 000000018000b62c f   LIBCMT:a_map.obj
 0001:0000a9b0       ?__crtGetStringTypeA_stat@@YAHPEAUlocaleinfo_struct@@KPEBDHPEAGHH@Z 000000018000b9b0 f   LIBCMT:a_str.obj
 0001:0000aba4       __createFile               000000018000bba4 f   LIBCMT:wopen.obj
 0001:0000b450       $$000000                   000000018000c450     LIBCMT:strncmp.obj
 0001:0000ee30       $$000000                   000000018000fe30     LIBCMT:memcmp.obj
 0001:0000f140       _onexit$fin$0              0000000180010140 f   LIBCMT:onexit.obj
 0001:0000f154       _fsopen$fin$0              0000000180010154 f   LIBCMT:fopen.obj
 0001:0000f16e       fwrite$fin$0               000000018001016e f   LIBCMT:fwrite.obj
 0001:0000f186       fclose$fin$0               0000000180010186 f   LIBCMT:fclose.obj
 0001:0000f19e       _CRT_INIT$fin$0            000000018001019e f   LIBCMT:dllcrt0.obj
 0001:0000f1c4       __DllMainCRTStartup$filt$0 00000001800101c4 f   LIBCMT:dllcrt0.obj
 0001:0000f20d       doexit$fin$0               000000018001020d f   LIBCMT:crt0dat.obj
 0001:0000f231       _fcloseall$fin$0           0000000180010231 f   LIBCMT:stream.obj
 0001:0000f231       _getstream$fin$0           0000000180010231 f   LIBCMT:stream.obj
 0001:0000f24a       _lseeki64$fin$0            000000018001024a f   LIBCMT:write.obj
 0001:0000f24a       _write$fin$0               000000018001024a f   LIBCMT:write.obj
 0001:0000f261       flsall$fin$0               0000000180010261 f   LIBCMT:fflush.obj
 0001:0000f289       flsall$fin$1               0000000180010289 f   LIBCMT:fflush.obj
 0001:0000f2a2       _commit$fin$0              00000001800102a2 f   LIBCMT:close.obj
 0001:0000f2a2       _close$fin$0               00000001800102a2 f   LIBCMT:close.obj
 0001:0000f2b9       _freefls$fin$1             00000001800102b9 f   LIBCMT:tidtable.obj
 0001:0000f2b9       _initptd$fin$1             00000001800102b9 f   LIBCMT:tidtable.obj
 0001:0000f2d2       _freefls$fin$0             00000001800102d2 f   LIBCMT:tidtable.obj
 0001:0000f2d2       _initptd$fin$0             00000001800102d2 f   LIBCMT:tidtable.obj
 0001:0000f2eb       _ioinit$fin$0              00000001800102eb f   LIBCMT:ioinit.obj
 0001:0000f306       _mtinitlocknum$fin$0       0000000180010306 f   LIBCMT:mlock.obj
 0001:0000f330       _IsNonwritableInCurrentImage$filt$0 0000000180010330 f   LIBCMT:pesect.obj
 0001:0000f350       raise$fin$0                0000000180010350 f   LIBCMT:winsig.obj
 0001:0000f36e       _setmbcp$fin$0             000000018001036e f   LIBCMT:mbctype.obj
 0001:0000f36e       __updatetmbcinfo$fin$0     000000018001036e f   LIBCMT:mbctype.obj
 0001:0000f387       _sopen_helper$fin$0        0000000180010387 f   LIBCMT:open.obj
 0001:0000f3da       __lock_fhandle$fin$0       00000001800103da f   LIBCMT:osfinfo.obj
 0001:0000f3f3       _alloc_osfhnd$fin$0        00000001800103f3 f   LIBCMT:osfinfo.obj
 0001:0000f40e       _alloc_osfhnd$fin$1        000000018001040e f   LIBCMT:osfinfo.obj
 0001:0000f427       __updatetlocinfo$fin$0     0000000180010427 f   LIBCMT:localref.obj
 0001:0000f427       _locterm$fin$0             0000000180010427 f   LIBCMT:localref.obj
 0001:0000f440       ??__Fon_complete_callback@?A0x6869d10c@@YAXXZ 0000000180010440 f   * CIL library *:* CIL module *
 0002:00000300       piecewise_construct$initializer$ 0000000180011300     * CIL library *:* CIL module *
 0002:00000308       allocator_arg$initializer$ 0000000180011308     * CIL library *:* CIL module *
 0002:00000310       on_complete_callback$initializer$ 0000000180011310     * CIL library *:* CIL module *
 0002:00000330       pinit                      0000000180011330     LIBCMT:onexit.obj
 0002:00000338       pinit                      0000000180011338     LIBCMT:_file.obj
 0002:00000340       pinit                      0000000180011340     LIBCMT:mbctype.obj
 0002:00000348       pinit                      0000000180011348     LIBCMT:cpu_disp.obj
 0002:00000360       pterm                      0000000180011360     LIBCMT:initcon.obj
 0002:00000368       pterm                      0000000180011368     LIBCMT:wsetloca.obj
 0002:00000370       pterm                      0000000180011370     LIBCMT:_file.obj
 0002:000003d8       GS_ExceptionPointers       00000001800113d8     LIBCMT:gs_report.obj
 0002:00000410       ?ccsField@?P@??_openfile@@9@9 0000000180011410     LIBCMT:_open.obj
 0002:00000414       ?utf8encoding@?P@??_openfile@@9@9 0000000180011414     LIBCMT:_open.obj
 0002:00000420       ?utf16encoding@?P@??_openfile@@9@9 0000000180011420     LIBCMT:_open.obj
 0002:00000430       ?unicodeencoding@?P@??_openfile@@9@9 0000000180011430     LIBCMT:_open.obj
 0002:00000920       rterrs                     0000000180011920     LIBCMT:crt0msg.obj
 0002:00001490       _mb_locale_names           0000000180012490     LIBCMT:mbctype.obj
 0002:000014f0       __real@433fffffffffffff    00000001800124f0     LIBCMT:fpsr.obj
 0002:000014f8       __real@c33fffffffffffff    00000001800124f8     LIBCMT:fpsr.obj
 0002:00005550       _first_127char             0000000180016550     LIBCMT:wsetloca.obj
 0002:000057f8       $unwind$?snprintf@?A0x6869d10c@@YAHPEAD_KPEBDZZ 00000001800167f8     * CIL library *:* CIL module *
 0002:00005804       $unwind$?WriteAsciiChunk@FileOutputStream@?A0x6869d10c@@UEAA?AW4WriteResult@OutputStream@v8@@PEADH@Z 0000000180016804     * CIL library *:* CIL module *
 0002:0000581c       $unwind$_lock_file2        000000018001681c     * CIL library *:* CIL module *
 0002:0000581c       $unwind$wcscat_s           000000018001681c     * CIL library *:* CIL module *
 0002:0000581c       $unwind$strcpy_s           000000018001681c     * CIL library *:* CIL module *
 0002:0000581c       $unwind$_freebuf           000000018001681c     * CIL library *:* CIL module *
 0002:0000581c       $unwind$__raise_securityfailure 000000018001681c     * CIL library *:* CIL module *
 0002:0000581c       $unwind$_getbuf            000000018001681c     * CIL library *:* CIL module *
 0002:0000581c       $unwind$wcscpy_s           000000018001681c     * CIL library *:* CIL module *
 0002:0000581c       $unwind$_getptd            000000018001681c     * CIL library *:* CIL module *
 0002:0000581c       $unwind$_freeptd           000000018001681c     * CIL library *:* CIL module *
 0002:0000581c       $unwind$??_GFileOutputStream@?A0x6869d10c@@UEAAPEAXI@Z 000000018001681c     * CIL library *:* CIL module *
 0002:0000581c       $unwind$_fflush_nolock     000000018001681c     * CIL library *:* CIL module *
 0002:0000581c       $unwind$_mtinit            000000018001681c     * CIL library *:* CIL module *
 0002:0000581c       $unwind$write_char         000000018001681c     * CIL library *:* CIL module *
 0002:0000581c       $unwind$__onexitinit       000000018001681c     * CIL library *:* CIL module *
 0002:0000581c       $unwind$__GSHandlerCheckCommon 000000018001681c     * CIL library *:* CIL module *
 0002:0000581c       $unwind$_lock_file         000000018001681c     * CIL library *:* CIL module *
 0002:0000581c       $unwind$_init_pointers     000000018001681c     * CIL library *:* CIL module *
 0002:0000581c       $unwind$??0_LocaleUpdate@@QEAA@PEAUlocaleinfo_struct@@@Z 000000018001681c     * CIL library *:* CIL module *
 0002:0000581c       $unwind$__crtIsPackagedApp 000000018001681c     * CIL library *:* CIL module *
 0002:0000581c       $unwind$__crtUnhandledException 000000018001681c     * CIL library *:* CIL module *
 0002:0000581c       $unwind$_cinit             000000018001681c     * CIL library *:* CIL module *
 0002:0000581c       $unwind$__crtTerminateProcess 000000018001681c     * CIL library *:* CIL module *
 0002:0000581c       $unwind$__crtLoadWinApiPointers 000000018001681c     * CIL library *:* CIL module *
 0002:0000581c       $unwind$__crtCorExitProcess 000000018001681c     * CIL library *:* CIL module *
 0002:0000581c       $unwind$wcsncpy_s          000000018001681c     * CIL library *:* CIL module *
 0002:0000581c       $unwind$__crtExitProcess   000000018001681c     * CIL library *:* CIL module *
 0002:0000581c       $unwind$_callnewh          000000018001681c     * CIL library *:* CIL module *
 0002:0000581c       $unwind$_amsg_exit         000000018001681c     * CIL library *:* CIL module *
 0002:00005824       $unwind$?WriteSnapshot@?A0x6869d10c@@YAXAEBV?$FunctionCallbackInfo@VValue@v8@@@v8@@@Z 0000000180016824     * CIL library *:* CIL module *
 0002:00005840       $unwind$?InvokeCallback@?A0x6869d10c@@YAXPEBD@Z 0000000180016840     * CIL library *:* CIL module *
 0002:00005848       $chain$1$?InvokeCallback@?A0x6869d10c@@YAXPEBD@Z 0000000180016848     * CIL library *:* CIL module *
 0002:00005860       $chain$2$?InvokeCallback@?A0x6869d10c@@YAXPEBD@Z 0000000180016860     * CIL library *:* CIL module *
 0002:00005870       $unwind$?Configure@?A0x6869d10c@@YAXAEBV?$FunctionCallbackInfo@VValue@v8@@@v8@@@Z 0000000180016870     * CIL library *:* CIL module *
 0002:00005870       $unwind$isleadbyte         0000000180016870     * CIL library *:* CIL module *
 0002:00005870       $unwind$_isleadbyte_l      0000000180016870     * CIL library *:* CIL module *
 0002:00005870       $unwind$_cropzeros_l       0000000180016870     * CIL library *:* CIL module *
 0002:00005870       $unwind$?getSystemCP@@YAHH@Z 0000000180016870     * CIL library *:* CIL module *
 0002:00005870       $unwind$isdigit            0000000180016870     * CIL library *:* CIL module *
 0002:00005870       $unwind$_forcdecpt_l       0000000180016870     * CIL library *:* CIL module *
 0002:00005878       $unwind$?Initialize@?A0x6869d10c@@YAXV?$Local@VObject@v8@@@v8@@@Z 0000000180016878     * CIL library *:* CIL module *
 0002:00005888       $xdatasym                  0000000180016888     LIBCMT:amdsecgs.obj
 0002:0000588c       $unwind$_FF_MSGBANNER      000000018001688c     LIBCMT:feoferr.obj
 0002:0000588c       $unwind$__doserrno         000000018001688c     LIBCMT:feoferr.obj
 0002:0000588c       $unwind$__initmbctable     000000018001688c     LIBCMT:feoferr.obj
 0002:0000588c       $unwind$atexit             000000018001688c     LIBCMT:feoferr.obj
 0002:0000588c       $unwind$_msize             000000018001688c     LIBCMT:feoferr.obj
 0002:0000588c       $unwind$__GSHandlerCheck   000000018001688c     LIBCMT:feoferr.obj
 0002:0000588c       $unwind$_get_osfhandle     000000018001688c     LIBCMT:feoferr.obj
 0002:0000588c       $unwind$__crtDownlevelLocaleNameToLCID 000000018001688c     LIBCMT:feoferr.obj
 0002:0000588c       $unwind$_fileno            000000018001688c     LIBCMT:feoferr.obj
 0002:0000588c       $unwind$_initp_eh_hooks    000000018001688c     LIBCMT:feoferr.obj
 0002:0000588c       $unwind$ferror             000000018001688c     LIBCMT:feoferr.obj
 0002:0000588c       $unwind$_set_error_mode    000000018001688c     LIBCMT:feoferr.obj
 0002:0000588c       $unwind$_get_fmode         000000018001688c     LIBCMT:feoferr.obj
 0002:0000588c       $unwind$_heap_init         000000018001688c     LIBCMT:feoferr.obj
 0002:0000588c       $unwind$abort              000000018001688c     LIBCMT:feoferr.obj
 0002:0000588c       $unwind$__termconout       000000018001688c     LIBCMT:feoferr.obj
 0002:0000588c       $unwind$_isatty            000000018001688c     LIBCMT:feoferr.obj
 0002:0000588c       $unwind$feof               000000018001688c     LIBCMT:feoferr.obj
 0002:0000588c       $unwind$_mtterm            000000018001688c     LIBCMT:feoferr.obj
 0002:0000588c       $unwind$__crtInitializeCriticalSectionEx 000000018001688c     LIBCMT:feoferr.obj
 0002:0000588c       $unwind$_invoke_watson     000000018001688c     LIBCMT:feoferr.obj
 0002:0000588c       $unwind$_strnicmp          000000018001688c     LIBCMT:feoferr.obj
 0002:0000588c       $unwind$__endstdio         000000018001688c     LIBCMT:feoferr.obj
 0002:0000588c       $unwind$_errno             000000018001688c     LIBCMT:feoferr.obj
 0002:00005894       $unwind$_onexit            0000000180016894     LIBCMT:onexit.obj
 0002:000058c4       $unwind$_fsopen            00000001800168c4     LIBCMT:fopen.obj
 0002:00005900       $unwind$fwrite             0000000180016900     LIBCMT:fwrite.obj
 0002:0000592c       $unwind$_fwrite_nolock     000000018001692c     LIBCMT:fwrite.obj
 0002:00005948       $unwind$_vsnprintf_helper  0000000180016948     LIBCMT:vsnprnc.obj
 0002:00005960       $unwind$fclose             0000000180016960     LIBCMT:fclose.obj
 0002:00005984       $unwind$_ioinit$fin$0      0000000180016984     LIBCMT:fclose.obj
 0002:00005984       $unwind$flsall$fin$1       0000000180016984     LIBCMT:fclose.obj
 0002:00005984       $unwind$_freefls$fin$0     0000000180016984     LIBCMT:fclose.obj
 0002:00005984       $unwind$raise$fin$0        0000000180016984     LIBCMT:fclose.obj
 0002:00005984       $unwind$_freefls$fin$1     0000000180016984     LIBCMT:fclose.obj
 0002:00005984       $unwind$_setmbcp$fin$0     0000000180016984     LIBCMT:fclose.obj
 0002:00005984       $unwind$_IsNonwritableInCurrentImage$filt$0 0000000180016984     LIBCMT:fclose.obj
 0002:00005984       $unwind$__updatetmbcinfo$fin$0 0000000180016984     LIBCMT:fclose.obj
 0002:00005984       $unwind$fwrite$fin$0       0000000180016984     LIBCMT:fclose.obj
 0002:00005984       $unwind$_fsopen$fin$0      0000000180016984     LIBCMT:fclose.obj
 0002:00005984       $unwind$doexit$fin$0       0000000180016984     LIBCMT:fclose.obj
 0002:00005984       $unwind$_commit$fin$0      0000000180016984     LIBCMT:fclose.obj
 0002:00005984       $unwind$__lock_fhandle$fin$0 0000000180016984     LIBCMT:fclose.obj
 0002:00005984       $unwind$_getstream$fin$0   0000000180016984     LIBCMT:fclose.obj
 0002:00005984       $unwind$fclose$fin$0       0000000180016984     LIBCMT:fclose.obj
 0002:00005984       $unwind$_onexit$fin$0      0000000180016984     LIBCMT:fclose.obj
 0002:00005984       $unwind$flsall$fin$0       0000000180016984     LIBCMT:fclose.obj
 0002:00005984       $unwind$_fcloseall$fin$0   0000000180016984     LIBCMT:fclose.obj
 0002:00005984       $unwind$_mtinitlocknum$fin$0 0000000180016984     LIBCMT:fclose.obj
 0002:00005984       $unwind$_write$fin$0       0000000180016984     LIBCMT:fclose.obj
 0002:00005984       $unwind$_alloc_osfhnd$fin$1 0000000180016984     LIBCMT:fclose.obj
 0002:00005984       $unwind$_initptd$fin$1     0000000180016984     LIBCMT:fclose.obj
 0002:00005984       $unwind$_close$fin$0       0000000180016984     LIBCMT:fclose.obj
 0002:00005984       $unwind$_lseeki64$fin$0    0000000180016984     LIBCMT:fclose.obj
 0002:00005984       $unwind$_alloc_osfhnd$fin$0 0000000180016984     LIBCMT:fclose.obj
 0002:00005984       $unwind$_initptd$fin$0     0000000180016984     LIBCMT:fclose.obj
 0002:00005984       $unwind$__updatetlocinfo$fin$0 0000000180016984     LIBCMT:fclose.obj
 0002:00005984       $unwind$__DllMainCRTStartup$filt$0 0000000180016984     LIBCMT:fclose.obj
 0002:00005984       $unwind$_locterm$fin$0     0000000180016984     LIBCMT:fclose.obj
 0002:00005984       $unwind$_CRT_INIT$fin$0    0000000180016984     LIBCMT:fclose.obj
 0002:0000598c       $unwind$_CRT_INIT          000000018001698c     LIBCMT:dllcrt0.obj
 0002:000059ac       $unwind$__DllMainCRTStartup 00000001800169ac     LIBCMT:dllcrt0.obj
 0002:000059d4       $unwind$_call_reportfault  00000001800169d4     LIBCMT:invarg.obj
 0002:000059f4       $unwind$__copy_path_to_wide_string 00000001800169f4     LIBCMT:crt0dat.obj
 0002:00005a0c       $unwind$doexit             0000000180016a0c     LIBCMT:crt0dat.obj
 0002:00005a3c       $unwind$_malloc_crt        0000000180016a3c     LIBCMT:crtheap.obj
 0002:00005a3c       $unwind$_realloc_crt       0000000180016a3c     LIBCMT:crtheap.obj
 0002:00005a3c       $unwind$_calloc_crt        0000000180016a3c     LIBCMT:crtheap.obj
 0002:00005a3c       $unwind$GetTableIndexFromLocaleName 0000000180016a3c     LIBCMT:crtheap.obj
 0002:00005a54       $unwind$__C_specific_handler 0000000180016a54     LIBCMT:chandler.obj
 0002:00005a70       $unwind$_getstream         0000000180016a70     LIBCMT:stream.obj
 0002:00005a98       $unwind$_openfile          0000000180016a98     LIBCMT:_open.obj
 0002:00005ab0       $xdatasym                  0000000180016ab0     LIBCMT:jmpuwind.obj
 0002:00005ac4       $unwind$_flsbuf            0000000180016ac4     LIBCMT:_flsbuf.obj
 0002:00005ad8       $xdatasym                  0000000180016ad8     LIBCMT:memcpy.obj
 0002:00005adc       $unwind$_write             0000000180016adc     LIBCMT:write.obj
 0002:00005b08       $unwind$_write_nolock      0000000180016b08     LIBCMT:write.obj
 0002:00005b2c       $unwind$_DllMainCRTStartup 0000000180016b2c     LIBCMT:fflush.obj
 0002:00005b2c       $unwind$_mtinitlocks       0000000180016b2c     LIBCMT:fflush.obj
 0002:00005b2c       $unwind$malloc             0000000180016b2c     LIBCMT:fflush.obj
 0002:00005b2c       $unwind$_flush             0000000180016b2c     LIBCMT:fflush.obj
 0002:00005b2c       $unwind$realloc            0000000180016b2c     LIBCMT:fflush.obj
 0002:00005b2c       $unwind$_ioterm            0000000180016b2c     LIBCMT:fflush.obj
 0002:00005b2c       $unwind$_lseeki64_nolock   0000000180016b2c     LIBCMT:fflush.obj
 0002:00005b3c       $unwind$flsall             0000000180016b3c     LIBCMT:fflush.obj
 0002:00005b7c       $unwind$_output_p_l        0000000180016b7c     LIBCMT:outputp.obj
 0002:00005ba0       $unwind$_validate_param_reuseA 0000000180016ba0     LIBCMT:outputp.obj
 0002:00005bb0       $unwind$write_multi_char   0000000180016bb0     LIBCMT:outputp.obj
 0002:00005bc4       $unwind$write_string       0000000180016bc4     LIBCMT:outputp.obj
 0002:00005be0       $xdatasym                  0000000180016be0     LIBCMT:memset.obj
 0002:00005be4       $unwind$_close             0000000180016be4     LIBCMT:close.obj
 0002:00005c0c       $unwind$_freefls           0000000180016c0c     LIBCMT:tidtable.obj
 0002:00005c40       $unwind$_initptd           0000000180016c40     LIBCMT:tidtable.obj
 0002:00005c74       $unwind$_ioinit            0000000180016c74     LIBCMT:ioinit.obj
 0002:00005cbc       $unwind$_setargv           0000000180016cbc     LIBCMT:stdargv.obj
 0002:00005ccc       $unwind$parse_cmdline      0000000180016ccc     LIBCMT:stdargv.obj
 0002:00005ce8       $unwind$_invalid_parameter 0000000180016ce8     LIBCMT:stdenvp.obj
 0002:00005ce8       $unwind$_setenvp           0000000180016ce8     LIBCMT:stdenvp.obj
 0002:00005cfc       $unwind$__security_init_cookie 0000000180016cfc     LIBCMT:gs_support.obj
 0002:00005d08       $unwind$__crtGetEnvironmentStringsA 0000000180016d08     LIBCMT:a_env.obj
 0002:00005d08       $unwind$_cftof2_l          0000000180016d08     LIBCMT:a_env.obj
 0002:00005d20       $unwind$__crtCaptureCurrentContext 0000000180016d20     LIBCMT:winapisupp.obj
 0002:00005d2c       $unwind$__crtCapturePreviousContext 0000000180016d2c     LIBCMT:winapisupp.obj
 0002:00005d38       $unwind$_mtinitlocknum     0000000180016d38     LIBCMT:mlock.obj
 0002:00005d60       $unwind$_NMSG_WRITE        0000000180016d60     LIBCMT:crt0msg.obj
 0002:00005d84       $unwind$_IsNonwritableInCurrentImage 0000000180016d84     LIBCMT:pesect.obj
 0002:00005da8       $unwind$_getptd_noexit     0000000180016da8     LIBCMT:cmiscdat.obj
 0002:00005da8       $unwind$__freeCrtMemory    0000000180016da8     LIBCMT:cmiscdat.obj
 0002:00005da8       $unwind$_close_nolock      0000000180016da8     LIBCMT:cmiscdat.obj
 0002:00005da8       $unwind$_fclose_nolock     0000000180016da8     LIBCMT:cmiscdat.obj
 0002:00005da8       $unwind$__initstdio        0000000180016da8     LIBCMT:cmiscdat.obj
 0002:00005da8       $unwind$_initterm_e        0000000180016da8     LIBCMT:cmiscdat.obj
 0002:00005da8       $unwind$_calloc_impl       0000000180016da8     LIBCMT:cmiscdat.obj
 0002:00005da8       $unwind$_RTC_Terminate     0000000180016da8     LIBCMT:cmiscdat.obj
 0002:00005da8       $unwind$_initp_misc_cfltcvt_tab 0000000180016da8     LIBCMT:cmiscdat.obj
 0002:00005da8       $unwind$_RTC_Initialize    0000000180016da8     LIBCMT:cmiscdat.obj
 0002:00005da8       $unwind$_dosmaperr         0000000180016da8     LIBCMT:cmiscdat.obj
 0002:00005da8       $unwind$_lock              0000000180016da8     LIBCMT:cmiscdat.obj
 0002:00005da8       $unwind$_updatetlocinfoEx_nolock 0000000180016da8     LIBCMT:cmiscdat.obj
 0002:00005da8       $unwind$_fptostr           0000000180016da8     LIBCMT:cmiscdat.obj
 0002:00005db4       $unwind$?terminate@@YAXXZ  0000000180016db4     LIBCMT:hooks.obj
 0002:00005dd4       $unwind$raise              0000000180016dd4     LIBCMT:winsig.obj
 0002:00005e04       $unwind$__updatetmbcinfo   0000000180016e04     LIBCMT:mbctype.obj
 0002:00005e28       $unwind$_setmbcp           0000000180016e28     LIBCMT:mbctype.obj
 0002:00005e58       $unwind$_setmbcp_nolock    0000000180016e58     LIBCMT:mbctype.obj
 0002:00005e78       $unwind$__freetlocinfo     0000000180016e78     LIBCMT:mbctype.obj
 0002:00005e78       $unwind$_initterm          0000000180016e78     LIBCMT:mbctype.obj
 0002:00005e78       $unwind$_XcptFilter        0000000180016e78     LIBCMT:mbctype.obj
 0002:00005e78       $unwind$?setSBCS@@YAXPEAUthreadmbcinfostruct@@@Z 0000000180016e78     LIBCMT:mbctype.obj
 0002:00005e78       $unwind$_mtdeletelocks     0000000180016e78     LIBCMT:mbctype.obj
 0002:00005e8c       $unwind$?setSBUpLow@@YAXPEAUthreadmbcinfostruct@@@Z 0000000180016e8c     LIBCMT:mbctype.obj
 0002:00005ea8       $unwind$_fcloseall         0000000180016ea8     LIBCMT:closeall.obj
 0002:00005ed0       $unwind$_sopen_helper      0000000180016ed0     LIBCMT:open.obj
 0002:00005ef4       $unwind$_sopen_helper$fin$0 0000000180016ef4     LIBCMT:open.obj
 0002:00005efc       $unwind$wctomb_s           0000000180016efc     LIBCMT:open.obj
 0002:00005efc       $unwind$_cfltcvt_l         0000000180016efc     LIBCMT:open.obj
 0002:00005efc       $unwind$_invalid_parameter_noinfo 0000000180016efc     LIBCMT:open.obj
 0002:00005efc       $unwind$_sopen_s           0000000180016efc     LIBCMT:open.obj
 0002:00005efc       $unwind$_vsprintf_p        0000000180016efc     LIBCMT:open.obj
 0002:00005efc       $unwind$strtol             0000000180016efc     LIBCMT:open.obj
 0002:00005f04       $unwind$_strnicmp_l        0000000180016f04     LIBCMT:mbsnbcmp.obj
 0002:00005f04       $unwind$_mbsnbcmp_l        0000000180016f04     LIBCMT:mbsnbcmp.obj
 0002:00005f04       $unwind$_mbsnbicmp_l       0000000180016f04     LIBCMT:mbsnbcmp.obj
 0002:00005f18       $unwind$_lseeki64          0000000180016f18     LIBCMT:lseeki64.obj
 0002:00005f44       $unwind$__isa_available_init 0000000180016f44     LIBCMT:cpu_disp.obj
 0002:00005f58       $unwind$_alloc_osfhnd      0000000180016f58     LIBCMT:osfinfo.obj
 0002:00005f9c       $unwind$_free_osfhnd       0000000180016f9c     LIBCMT:osfinfo.obj
 0002:00005fac       $unwind$_set_osfhnd        0000000180016fac     LIBCMT:osfinfo.obj
 0002:00005fc0       $unwind$__lock_fhandle     0000000180016fc0     LIBCMT:osfinfo.obj
 0002:00005fec       $unwind$_mbtowc_l          0000000180016fec     LIBCMT:mbtowc.obj
 0002:00006004       $unwind$__report_gsfailure 0000000180017004     LIBCMT:putwch.obj
 0002:00006004       $unwind$_putwch_nolock     0000000180017004     LIBCMT:putwch.obj
 0002:00006010       $xdatasym                  0000000180017010     LIBCMT:chkstk.obj
 0002:00006018       $unwind$_commit            0000000180017018     LIBCMT:commit.obj
 0002:00006040       $xdatasym                  0000000180017040     LIBCMT:fpsr.obj
 0002:00006048       $unwind$_cfltcvt           0000000180017048     LIBCMT:cvt.obj
 0002:00006048       $unwind$__initconout       0000000180017048     LIBCMT:cvt.obj
 0002:00006050       $unwind$_fassign_l         0000000180017050     LIBCMT:cvt.obj
 0002:00006058       $unwind$_cftoe2_l          0000000180017058     LIBCMT:cvt.obj
 0002:00006074       $unwind$_cftoe_l           0000000180017074     LIBCMT:cvt.obj
 0002:0000608c       $unwind$_cftoa_l           000000018001708c     LIBCMT:cvt.obj
 0002:000060a8       $unwind$_cftof_l           00000001800170a8     LIBCMT:cvt.obj
 0002:000060c0       $unwind$_cftog_l           00000001800170c0     LIBCMT:cvt.obj
 0002:000060d8       $unwind$__updatetlocinfo   00000001800170d8     LIBCMT:localref.obj
 0002:000060f8       $xdatasym                  00000001800170f8     LIBCMT:strlen.obj
 0002:000060fc       $unwind$_wctomb_s_l        00000001800170fc     LIBCMT:wctomb.obj
 0002:0000610c       $unwind$?strtoxl@@YAKPEAUlocaleinfo_struct@@PEBDPEAPEBDHH@Z 000000018001710c     LIBCMT:strtol.obj
 0002:00006124       $unwind$?x_ismbbtype_l@@YAHPEAUlocaleinfo_struct@@IHH@Z 0000000180017124     LIBCMT:ismbbyte.obj
 0002:00006134       $unwind$__crtMessageBoxW   0000000180017134     LIBCMT:crtmboxw.obj
 0002:00006150       $unwind$_sopen_nolock      0000000180017150     LIBCMT:winapinls.obj
 0002:00006150       $unwind$__crtLCMapStringEx 0000000180017150     LIBCMT:winapinls.obj
 0002:00006160       $unwind$__crtLCMapStringA  0000000180017160     LIBCMT:a_map.obj
 0002:00006170       $unwind$?__crtLCMapStringA_stat@@YAHPEAUlocaleinfo_struct@@PEB_WKPEBDHPEADHHH@Z 0000000180017170     LIBCMT:a_map.obj
 0002:00006198       $unwind$__crtGetStringTypeA 0000000180017198     LIBCMT:a_str.obj
 0002:000061a8       $unwind$?__crtGetStringTypeA_stat@@YAHPEAUlocaleinfo_struct@@KPEBDHPEAGHH@Z 00000001800171a8     LIBCMT:a_str.obj
 0002:000061d0       $unwind$_wsopen_nolock     00000001800171d0     LIBCMT:wopen.obj
 0002:000061ec       $unwind$__createFile       00000001800171ec     LIBCMT:wopen.obj
 0002:00006200       $xdatasym                  0000000180017200     LIBCMT:strncmp.obj
 0002:00006204       $unwind$_tolower_l         0000000180017204     LIBCMT:tolower.obj
 0002:00006214       $unwind$strrchr            0000000180017214     LIBCMT:strrchr.obj
 0002:0000621c       $unwind$_atodbl_l          000000018001721c     LIBCMT:atodbl.obj
 0002:00006230       $unwind$__crt_atoflt_l     0000000180017230     LIBCMT:atodbl.obj
 0002:00006244       $unwind$_fltout2           0000000180017244     LIBCMT:cfout.obj
 0002:0000625c       $unwind$__dtold            000000018001725c     LIBCMT:cfout.obj
 0002:00006264       $unwind$__free_lc_time     0000000180017264     LIBCMT:initmon.obj
 0002:00006264       $unwind$__free_lconv_mon   0000000180017264     LIBCMT:initmon.obj
 0002:0000626c       $unwind$free               000000018001726c     LIBCMT:initnum.obj
 0002:0000626c       $unwind$__free_lconv_num   000000018001726c     LIBCMT:initnum.obj
 0002:00006274       $unwind$_isctype_l         0000000180017274     LIBCMT:isctype.obj
 0002:00006284       $unwind$_locterm           0000000180017284     LIBCMT:wsetloca.obj
 0002:000062a4       $unwind$_chsize_nolock     00000001800172a4     LIBCMT:chsize.obj
 0002:000062c0       $unwind$_read_nolock       00000001800172c0     LIBCMT:read.obj
 0002:000062d8       $unwind$_setmode_nolock    00000001800172d8     LIBCMT:setmode.obj
 0002:000062e4       $unwind$_ld12tod           00000001800172e4     LIBCMT:intrncvt.obj
 0002:000062e4       $unwind$_ld12tof           00000001800172e4     LIBCMT:intrncvt.obj
 0002:00006308       $unwind$__strgtold12_l     0000000180017308     LIBCMT:strgtold.obj
 0002:0000632c       $unwind$$I10_OUTPUT        000000018001732c     LIBCMT:x10fout.obj
 0002:00006350       $xdatasym                  0000000180017350     LIBCMT:memcmp.obj
 0002:00006354       $unwind$__mtold12          0000000180017354     LIBCMT:mantold.obj
 0002:00006370       .edata                     0000000180017370     addon.exp
 0002:00006398       rgpv                       0000000180017398     addon.exp
 0002:0000639c       rgszName                   000000018001739c     addon.exp
 0002:000063a0       rgwOrd                     00000001800173a0     addon.exp
 0002:000063a2       szName                     00000001800173a2     addon.exp
 0002:000063ad       $N00001                    00000001800173ad     addon.exp
 0002:00006d72       .idata$6                   0000000180017d72     node:node.exe
 0002:00007252       .idata$6                   0000000180018252     kernel32:KERNEL32.dll
 0003:00000010       errtable                   0000000180019010     LIBCMT:dosmap.obj
 0003:00000178       ErrnoNoMem                 0000000180019178     LIBCMT:dosmap.obj
 0003:0000017c       DoserrorNoMem              000000018001917c     LIBCMT:dosmap.obj
 0003:00000540       ?dazSupported@?1??_ctrlfp@@9@9 0000000180019540     LIBCMT:fpctrl.obj
 0003:000005c8       ?isPackaged@?1??__crtIsPackagedApp@@9@9 00000001800195c8     LIBCMT:winapisupp.obj
 0003:000005d0       _locktable                 00000001800195d0     LIBCMT:mlock.obj
 0003:00000c98       __rgctypeflag              0000000180019c98     LIBCMT:mbctype.obj
 0003:00000ca0       __rgcode_page_info         0000000180019ca0     LIBCMT:mbctype.obj
 0003:00000da0       ?_names@?1??_get_fname@@9@9 0000000180019da0     LIBCMT:fpexcept.obj
 0003:000014b8       _ctype_loc_style           000000018001a4b8     LIBCMT:wsetloca.obj
 0003:000015c0       DoubleFormat               000000018001a5c0     LIBCMT:intrncvt.obj
 0003:000015d8       FloatFormat                000000018001a5d8     LIBCMT:intrncvt.obj
 0003:000018c0       _module                    000000018001a8c0     * CIL library *:* CIL module *
 0003:00001900       __proc_attached            000000018001a900     LIBCMT:dllcrt0.obj
 0003:00001920       GS_ExceptionRecord         000000018001a920     LIBCMT:gs_report.obj
 0003:000019c0       GS_ContextRecord           000000018001a9c0     LIBCMT:gs_report.obj
 0003:00001e90       DebuggerWasPresent         000000018001ae90     LIBCMT:gs_report.obj
 0003:00002110       ?_pgmname@?1??_setargv@@9@9 000000018001b110     LIBCMT:stdargv.obj
 0003:00002220       lclcritsects               000000018001b220     LIBCMT:mlock.obj
 0003:00002460       ?outmsg@?8??_NMSG_WRITE@@9@9 000000018001b460     LIBCMT:crt0msg.obj
 0003:00002aa0       ctrlc_action               000000018001baa0     LIBCMT:winsig.obj
 0003:00002aa8       ctrlbreak_action           000000018001baa8     LIBCMT:winsig.obj
 0003:00002ab0       abort_action               000000018001bab0     LIBCMT:winsig.obj
 0003:00002ab8       term_action                000000018001bab8     LIBCMT:winsig.obj
 0003:00002ac0       ConsoleCtrlHandler_Installed 000000018001bac0     LIBCMT:winsig.obj
 0003:00002ac8       g_pfnRtlGenRandom          000000018001bac8     LIBCMT:rand_s.obj
 0003:00002af0       fSystemSet                 000000018001baf0     LIBCMT:mbctype.obj
 0003:00002b10       __enable_percent_n         000000018001bb10     LIBCMT:printf.obj
 0003:00002b20       ?pfnMessageBox@?1??__crtMessageBoxW@@9@9 000000018001bb20     LIBCMT:crtmboxw.obj
 0003:00002b28       ?pfnGetActiveWindow@?1??__crtMessageBoxW@@9@9 000000018001bb28     LIBCMT:crtmboxw.obj
 0003:00002b30       ?pfnGetLastActivePopup@?1??__crtMessageBoxW@@9@9 000000018001bb30     LIBCMT:crtmboxw.obj
 0003:00002b38       ?pfnGetProcessWindowStation@?1??__crtMessageBoxW@@9@9 000000018001bb38     LIBCMT:crtmboxw.obj
 0003:00002b40       ?pfnGetUserObjectInformation@?1??__crtMessageBoxW@@9@9 000000018001bb40     LIBCMT:crtmboxw.obj
 0003:00002b48       __crtCallProc              000000018001bb48     LIBCMT:winapinls.obj
 0003:00002b68       allocator_arg              000000018001bb68     * CIL library *:* CIL module *
 0003:00002b69       piecewise_construct        000000018001bb69     * CIL library *:* CIL module *
 0003:00002b70       on_complete_callback       000000018001bb70     * CIL library *:* CIL module *
 0004:00000000       $pdata$?snprintf@?A0x6869d10c@@YAHPEAD_KPEBDZZ 000000018001d000     * CIL library *:* CIL module *
 0004:0000000c       $pdata$?WriteAsciiChunk@FileOutputStream@?A0x6869d10c@@UEAA?AW4WriteResult@OutputStream@v8@@PEADH@Z 000000018001d00c     * CIL library *:* CIL module *
 0004:00000018       $pdata$??_GFileOutputStream@?A0x6869d10c@@UEAAPEAXI@Z 000000018001d018     * CIL library *:* CIL module *
 0004:00000024       $pdata$?WriteSnapshot@?A0x6869d10c@@YAXAEBV?$FunctionCallbackInfo@VValue@v8@@@v8@@@Z 000000018001d024     * CIL library *:* CIL module *
 0004:00000030       $pdata$?InvokeCallback@?A0x6869d10c@@YAXPEBD@Z 000000018001d030     * CIL library *:* CIL module *
 0004:0000003c       $pdata$1$?InvokeCallback@?A0x6869d10c@@YAXPEBD@Z 000000018001d03c     * CIL library *:* CIL module *
 0004:00000048       $pdata$2$?InvokeCallback@?A0x6869d10c@@YAXPEBD@Z 000000018001d048     * CIL library *:* CIL module *
 0004:00000054       $pdata$?Configure@?A0x6869d10c@@YAXAEBV?$FunctionCallbackInfo@VValue@v8@@@v8@@@Z 000000018001d054     * CIL library *:* CIL module *
 0004:00000060       $pdata$?Initialize@?A0x6869d10c@@YAXV?$Local@VObject@v8@@@v8@@@Z 000000018001d060     * CIL library *:* CIL module *
 0004:00000078       $pdata$feof                000000018001d078     LIBCMT:feoferr.obj
 0004:00000084       $pdata$ferror              000000018001d084     LIBCMT:feoferr.obj
 0004:00000090       $pdata$__onexitinit        000000018001d090     LIBCMT:onexit.obj
 0004:0000009c       $pdata$_onexit             000000018001d09c     LIBCMT:onexit.obj
 0004:000000a8       $pdata$atexit              000000018001d0a8     LIBCMT:onexit.obj
 0004:000000b4       $pdata$_fsopen             000000018001d0b4     LIBCMT:fopen.obj
 0004:000000c0       $pdata$_fwrite_nolock      000000018001d0c0     LIBCMT:fwrite.obj
 0004:000000cc       $pdata$fwrite              000000018001d0cc     LIBCMT:fwrite.obj
 0004:000000d8       $pdata$_vsnprintf_helper   000000018001d0d8     LIBCMT:vsnprnc.obj
 0004:000000e4       $pdata$_vsprintf_p         000000018001d0e4     LIBCMT:vsnprnc.obj
 0004:000000f0       $pdata$_fclose_nolock      000000018001d0f0     LIBCMT:fclose.obj
 0004:000000fc       $pdata$fclose              000000018001d0fc     LIBCMT:fclose.obj
 0004:00000108       $pdata$_CRT_INIT           000000018001d108     LIBCMT:dllcrt0.obj
 0004:00000114       $pdata$_DllMainCRTStartup  000000018001d114     LIBCMT:dllcrt0.obj
 0004:00000120       $pdata$__DllMainCRTStartup 000000018001d120     LIBCMT:dllcrt0.obj
 0004:0000012c       $pdata$__raise_securityfailure 000000018001d12c     LIBCMT:gs_report.obj
 0004:00000138       $pdata$__report_gsfailure  000000018001d138     LIBCMT:gs_report.obj
 0004:00000144       $pdata$_call_reportfault   000000018001d144     LIBCMT:invarg.obj
 0004:00000150       $pdata$_invalid_parameter  000000018001d150     LIBCMT:invarg.obj
 0004:0000015c       $pdata$_invalid_parameter_noinfo 000000018001d15c     LIBCMT:invarg.obj
 0004:00000168       $pdata$_invoke_watson      000000018001d168     LIBCMT:invarg.obj
 0004:00000174       $pdata$__doserrno          000000018001d174     LIBCMT:dosmap.obj
 0004:00000180       $pdata$_dosmaperr          000000018001d180     LIBCMT:dosmap.obj
 0004:0000018c       $pdata$_errno              000000018001d18c     LIBCMT:dosmap.obj
 0004:00000198       $pdata$__copy_path_to_wide_string 000000018001d198     LIBCMT:crt0dat.obj
 0004:000001a4       $pdata$__crtCorExitProcess 000000018001d1a4     LIBCMT:crt0dat.obj
 0004:000001b0       $pdata$__crtExitProcess    000000018001d1b0     LIBCMT:crt0dat.obj
 0004:000001bc       $pdata$__freeCrtMemory     000000018001d1bc     LIBCMT:crt0dat.obj
 0004:000001c8       $pdata$_amsg_exit          000000018001d1c8     LIBCMT:crt0dat.obj
 0004:000001d4       $pdata$_cinit              000000018001d1d4     LIBCMT:crt0dat.obj
 0004:000001e0       $pdata$_init_pointers      000000018001d1e0     LIBCMT:crt0dat.obj
 0004:000001ec       $pdata$_initterm           000000018001d1ec     LIBCMT:crt0dat.obj
 0004:000001f8       $pdata$_initterm_e         000000018001d1f8     LIBCMT:crt0dat.obj
 0004:00000204       $pdata$doexit              000000018001d204     LIBCMT:crt0dat.obj
 0004:00000210       $pdata$_msize              000000018001d210     LIBCMT:msize.obj
 0004:0000021c       $pdata$_calloc_crt         000000018001d21c     LIBCMT:crtheap.obj
 0004:00000228       $pdata$_malloc_crt         000000018001d228     LIBCMT:crtheap.obj
 0004:00000234       $pdata$_realloc_crt        000000018001d234     LIBCMT:crtheap.obj
 0004:00000240       $pdata$__C_specific_handler 000000018001d240     LIBCMT:chandler.obj
 0004:0000024c       $pdata$__initstdio         000000018001d24c     LIBCMT:_file.obj
 0004:00000258       $pdata$__endstdio          000000018001d258     LIBCMT:_file.obj
 0004:00000264       $pdata$_lock_file          000000018001d264     LIBCMT:_file.obj
 0004:00000270       $pdata$_lock_file2         000000018001d270     LIBCMT:_file.obj
 0004:0000027c       $pdata$_getstream          000000018001d27c     LIBCMT:stream.obj
 0004:00000288       $pdata$_openfile           000000018001d288     LIBCMT:_open.obj
 0004:000002c4       $pdata$free                000000018001d2c4     LIBCMT:free.obj
 0004:000002d0       $pdata$_flsbuf             000000018001d2d0     LIBCMT:_flsbuf.obj
 0004:000002dc       $pdata$_fileno             000000018001d2dc     LIBCMT:fileno.obj
 0004:000002f4       $pdata$_write              000000018001d2f4     LIBCMT:write.obj
 0004:00000300       $pdata$_write_nolock       000000018001d300     LIBCMT:write.obj
 0004:0000030c       $pdata$_fflush_nolock      000000018001d30c     LIBCMT:fflush.obj
 0004:00000318       $pdata$_flush              000000018001d318     LIBCMT:fflush.obj
 0004:00000324       $pdata$flsall              000000018001d324     LIBCMT:fflush.obj
 0004:00000330       $pdata$??0_LocaleUpdate@@QEAA@PEAUlocaleinfo_struct@@@Z 000000018001d330     LIBCMT:output.obj
 0004:0000033c       $pdata$_output_p_l         000000018001d33c     LIBCMT:outputp.obj
 0004:00000348       $pdata$_validate_param_reuseA 000000018001d348     LIBCMT:outputp.obj
 0004:00000354       $pdata$write_char          000000018001d354     LIBCMT:outputp.obj
 0004:00000360       $pdata$write_multi_char    000000018001d360     LIBCMT:outputp.obj
 0004:0000036c       $pdata$write_string        000000018001d36c     LIBCMT:outputp.obj
 0004:00000384       $pdata$_close              000000018001d384     LIBCMT:close.obj
 0004:00000390       $pdata$_close_nolock       000000018001d390     LIBCMT:close.obj
 0004:0000039c       $pdata$_freebuf            000000018001d39c     LIBCMT:_freebuf.obj
 0004:000003a8       $pdata$_XcptFilter         000000018001d3a8     LIBCMT:winxfltr.obj
 0004:000003b4       $pdata$_freefls            000000018001d3b4     LIBCMT:tidtable.obj
 0004:000003c0       $pdata$_freeptd            000000018001d3c0     LIBCMT:tidtable.obj
 0004:000003cc       $pdata$_getptd             000000018001d3cc     LIBCMT:tidtable.obj
 0004:000003d8       $pdata$_getptd_noexit      000000018001d3d8     LIBCMT:tidtable.obj
 0004:000003e4       $pdata$_initptd            000000018001d3e4     LIBCMT:tidtable.obj
 0004:000003f0       $pdata$_mtinit             000000018001d3f0     LIBCMT:tidtable.obj
 0004:000003fc       $pdata$_mtterm             000000018001d3fc     LIBCMT:tidtable.obj
 0004:00000408       $pdata$_heap_init          000000018001d408     LIBCMT:heapinit.obj
 0004:00000414       $pdata$_ioinit             000000018001d414     LIBCMT:ioinit.obj
 0004:00000420       $pdata$_ioterm             000000018001d420     LIBCMT:ioinit.obj
 0004:0000042c       $pdata$_setargv            000000018001d42c     LIBCMT:stdargv.obj
 0004:00000438       $pdata$parse_cmdline       000000018001d438     LIBCMT:stdargv.obj
 0004:00000444       $pdata$_setenvp            000000018001d444     LIBCMT:stdenvp.obj
 0004:00000450       $pdata$__security_init_cookie 000000018001d450     LIBCMT:gs_support.obj
 0004:0000045c       $pdata$__crtGetEnvironmentStringsA 000000018001d45c     LIBCMT:a_env.obj
 0004:00000468       $pdata$__crtCaptureCurrentContext 000000018001d468     LIBCMT:winapisupp.obj
 0004:00000474       $pdata$__crtCapturePreviousContext 000000018001d474     LIBCMT:winapisupp.obj
 0004:00000480       $pdata$__crtInitializeCriticalSectionEx 000000018001d480     LIBCMT:winapisupp.obj
 0004:0000048c       $pdata$__crtIsPackagedApp  000000018001d48c     LIBCMT:winapisupp.obj
 0004:00000498       $pdata$__crtLoadWinApiPointers 000000018001d498     LIBCMT:winapisupp.obj
 0004:000004a4       $pdata$__crtTerminateProcess 000000018001d4a4     LIBCMT:winapisupp.obj
 0004:000004b0       $pdata$__crtUnhandledException 000000018001d4b0     LIBCMT:winapisupp.obj
 0004:000004bc       $pdata$_RTC_Initialize     000000018001d4bc     LIBCMT:initsect.obj
 0004:000004c8       $pdata$_RTC_Terminate      000000018001d4c8     LIBCMT:initsect.obj
 0004:000004d4       $pdata$__GSHandlerCheck    000000018001d4d4     LIBCMT:gshandler.obj
 0004:000004e0       $pdata$__GSHandlerCheckCommon 000000018001d4e0     LIBCMT:gshandler.obj
 0004:000004ec       $pdata$_lock               000000018001d4ec     LIBCMT:mlock.obj
 0004:000004f8       $pdata$_mtdeletelocks      000000018001d4f8     LIBCMT:mlock.obj
 0004:00000504       $pdata$_mtinitlocknum      000000018001d504     LIBCMT:mlock.obj
 0004:00000510       $pdata$_mtinitlocks        000000018001d510     LIBCMT:mlock.obj
 0004:0000051c       $pdata$_FF_MSGBANNER       000000018001d51c     LIBCMT:crt0msg.obj
 0004:00000528       $pdata$_NMSG_WRITE         000000018001d528     LIBCMT:crt0msg.obj
 0004:00000534       $pdata$_IsNonwritableInCurrentImage 000000018001d534     LIBCMT:pesect.obj
 0004:00000540       $pdata$_initp_misc_cfltcvt_tab 000000018001d540     LIBCMT:cmiscdat.obj
 0004:0000054c       $pdata$?terminate@@YAXXZ   000000018001d54c     LIBCMT:hooks.obj
 0004:00000558       $pdata$_initp_eh_hooks     000000018001d558     LIBCMT:hooks.obj
 0004:00000564       $pdata$_callnewh           000000018001d564     LIBCMT:handler.obj
 0004:00000570       $pdata$raise               000000018001d570     LIBCMT:winsig.obj
 0004:0000057c       $pdata$__initmbctable      000000018001d57c     LIBCMT:mbctype.obj
 0004:00000588       $pdata$?getSystemCP@@YAHH@Z 000000018001d588     LIBCMT:mbctype.obj
 0004:00000594       $pdata$?setSBCS@@YAXPEAUthreadmbcinfostruct@@@Z 000000018001d594     LIBCMT:mbctype.obj
 0004:000005a0       $pdata$?setSBUpLow@@YAXPEAUthreadmbcinfostruct@@@Z 000000018001d5a0     LIBCMT:mbctype.obj
 0004:000005ac       $pdata$__updatetmbcinfo    000000018001d5ac     LIBCMT:mbctype.obj
 0004:000005b8       $pdata$_setmbcp            000000018001d5b8     LIBCMT:mbctype.obj
 0004:000005c4       $pdata$_setmbcp_nolock     000000018001d5c4     LIBCMT:mbctype.obj
 0004:000005d0       $pdata$malloc              000000018001d5d0     LIBCMT:malloc.obj
 0004:000005dc       $pdata$realloc             000000018001d5dc     LIBCMT:realloc.obj
 0004:000005e8       $pdata$_calloc_impl        000000018001d5e8     LIBCMT:calloc_impl.obj
 0004:000005f4       $pdata$_fcloseall          000000018001d5f4     LIBCMT:closeall.obj
 0004:00000600       $pdata$_sopen_helper       000000018001d600     LIBCMT:open.obj
 0004:0000060c       $pdata$_sopen_nolock       000000018001d60c     LIBCMT:open.obj
 0004:00000618       $pdata$_sopen_s            000000018001d618     LIBCMT:open.obj
 0004:00000624       $pdata$_mbsnbcmp_l         000000018001d624     LIBCMT:mbsnbcmp.obj
 0004:00000630       $pdata$_mbsnbicmp_l        000000018001d630     LIBCMT:mbsnbicm.obj
 0004:0000063c       $pdata$_isatty             000000018001d63c     LIBCMT:isatty.obj
 0004:00000648       $pdata$_lseeki64           000000018001d648     LIBCMT:lseeki64.obj
 0004:00000654       $pdata$_lseeki64_nolock    000000018001d654     LIBCMT:lseeki64.obj
 0004:00000660       $pdata$_getbuf             000000018001d660     LIBCMT:_getbuf.obj
 0004:0000066c       $pdata$__isa_available_init 000000018001d66c     LIBCMT:cpu_disp.obj
 0004:00000678       $pdata$_isleadbyte_l       000000018001d678     LIBCMT:_wctype.obj
 0004:00000684       $pdata$isleadbyte          000000018001d684     LIBCMT:_wctype.obj
 0004:00000690       $pdata$__lock_fhandle      000000018001d690     LIBCMT:osfinfo.obj
 0004:0000069c       $pdata$_alloc_osfhnd       000000018001d69c     LIBCMT:osfinfo.obj
 0004:000006a8       $pdata$_free_osfhnd        000000018001d6a8     LIBCMT:osfinfo.obj
 0004:000006b4       $pdata$_get_osfhandle      000000018001d6b4     LIBCMT:osfinfo.obj
 0004:000006c0       $pdata$_set_osfhnd         000000018001d6c0     LIBCMT:osfinfo.obj
 0004:000006cc       $pdata$_mbtowc_l           000000018001d6cc     LIBCMT:mbtowc.obj
 0004:000006d8       $pdata$_putwch_nolock      000000018001d6d8     LIBCMT:putwch.obj
 0004:000006f0       $pdata$_commit             000000018001d6f0     LIBCMT:commit.obj
 0004:00000708       $pdata$_cfltcvt            000000018001d708     LIBCMT:cvt.obj
 0004:00000714       $pdata$_cfltcvt_l          000000018001d714     LIBCMT:cvt.obj
 0004:00000720       $pdata$_cftoa_l            000000018001d720     LIBCMT:cvt.obj
 0004:0000072c       $pdata$_cftoe2_l           000000018001d72c     LIBCMT:cvt.obj
 0004:00000738       $pdata$_cftoe_l            000000018001d738     LIBCMT:cvt.obj
 0004:00000744       $pdata$_cftof2_l           000000018001d744     LIBCMT:cvt.obj
 0004:00000750       $pdata$_cftof_l            000000018001d750     LIBCMT:cvt.obj
 0004:0000075c       $pdata$_cftog_l            000000018001d75c     LIBCMT:cvt.obj
 0004:00000768       $pdata$_cropzeros_l        000000018001d768     LIBCMT:cvt.obj
 0004:00000774       $pdata$_fassign_l          000000018001d774     LIBCMT:cvt.obj
 0004:00000780       $pdata$_forcdecpt_l        000000018001d780     LIBCMT:cvt.obj
 0004:0000078c       $pdata$__freetlocinfo      000000018001d78c     LIBCMT:localref.obj
 0004:00000798       $pdata$__updatetlocinfo    000000018001d798     LIBCMT:localref.obj
 0004:000007a4       $pdata$_updatetlocinfoEx_nolock 000000018001d7a4     LIBCMT:localref.obj
 0004:000007bc       $pdata$_wctomb_s_l         000000018001d7bc     LIBCMT:wctomb.obj
 0004:000007c8       $pdata$wctomb_s            000000018001d7c8     LIBCMT:wctomb.obj
 0004:000007d4       $pdata$?strtoxl@@YAKPEAUlocaleinfo_struct@@PEBDPEAPEBDHH@Z 000000018001d7d4     LIBCMT:strtol.obj
 0004:000007e0       $pdata$strtol              000000018001d7e0     LIBCMT:strtol.obj
 0004:000007ec       $pdata$?x_ismbbtype_l@@YAHPEAUlocaleinfo_struct@@IHH@Z 000000018001d7ec     LIBCMT:ismbbyte.obj
 0004:000007f8       $pdata$strcpy_s            000000018001d7f8     LIBCMT:strcpy_s.obj
 0004:00000804       $pdata$wcscat_s            000000018001d804     LIBCMT:wcscat_s.obj
 0004:00000810       $pdata$wcscpy_s            000000018001d810     LIBCMT:wcscpy_s.obj
 0004:0000081c       $pdata$wcsncpy_s           000000018001d81c     LIBCMT:wcsncpy_s.obj
 0004:00000828       $pdata$_set_error_mode     000000018001d828     LIBCMT:errmode.obj
 0004:00000834       $pdata$__crtMessageBoxW    000000018001d834     LIBCMT:crtmboxw.obj
 0004:00000840       $pdata$abort               000000018001d840     LIBCMT:abort.obj
 0004:0000084c       $pdata$GetTableIndexFromLocaleName 000000018001d84c     LIBCMT:winapinls.obj
 0004:00000858       $pdata$__crtDownlevelLocaleNameToLCID 000000018001d858     LIBCMT:winapinls.obj
 0004:00000864       $pdata$__crtLCMapStringEx  000000018001d864     LIBCMT:winapinls.obj
 0004:00000870       $pdata$?__crtLCMapStringA_stat@@YAHPEAUlocaleinfo_struct@@PEB_WKPEBDHPEADHHH@Z 000000018001d870     LIBCMT:a_map.obj
 0004:0000087c       $pdata$__crtLCMapStringA   000000018001d87c     LIBCMT:a_map.obj
 0004:00000888       $pdata$?__crtGetStringTypeA_stat@@YAHPEAUlocaleinfo_struct@@KPEBDHPEAGHH@Z 000000018001d888     LIBCMT:a_str.obj
 0004:00000894       $pdata$__crtGetStringTypeA 000000018001d894     LIBCMT:a_str.obj
 0004:000008a0       $pdata$__createFile        000000018001d8a0     LIBCMT:wopen.obj
 0004:000008ac       $pdata$_wsopen_nolock      000000018001d8ac     LIBCMT:wopen.obj
 0004:000008c4       $pdata$_strnicmp           000000018001d8c4     LIBCMT:strnicmp.obj
 0004:000008d0       $pdata$_strnicmp_l         000000018001d8d0     LIBCMT:strnicmp.obj
 0004:000008dc       $pdata$__termconout        000000018001d8dc     LIBCMT:initcon.obj
 0004:000008e8       $pdata$__initconout        000000018001d8e8     LIBCMT:initcon.obj
 0004:000008f4       $pdata$isdigit             000000018001d8f4     LIBCMT:_ctype.obj
 0004:00000900       $pdata$_tolower_l          000000018001d900     LIBCMT:tolower.obj
 0004:0000090c       $pdata$strrchr             000000018001d90c     LIBCMT:strrchr.obj
 0004:00000918       $pdata$_fptostr            000000018001d918     LIBCMT:_fptostr.obj
 0004:00000924       $pdata$__crt_atoflt_l      000000018001d924     LIBCMT:atodbl.obj
 0004:00000930       $pdata$_atodbl_l           000000018001d930     LIBCMT:atodbl.obj
 0004:0000093c       $pdata$__dtold             000000018001d93c     LIBCMT:cfout.obj
 0004:00000948       $pdata$_fltout2            000000018001d948     LIBCMT:cfout.obj
 0004:00000954       $pdata$__free_lconv_mon    000000018001d954     LIBCMT:initmon.obj
 0004:00000960       $pdata$__free_lconv_num    000000018001d960     LIBCMT:initnum.obj
 0004:0000096c       $pdata$__free_lc_time      000000018001d96c     LIBCMT:inittime.obj
 0004:00000978       $pdata$_isctype_l          000000018001d978     LIBCMT:isctype.obj
 0004:00000984       $pdata$_locterm            000000018001d984     LIBCMT:wsetloca.obj
 0004:00000990       $pdata$_chsize_nolock      000000018001d990     LIBCMT:chsize.obj
 0004:0000099c       $pdata$_read_nolock        000000018001d99c     LIBCMT:read.obj
 0004:000009a8       $pdata$_get_fmode          000000018001d9a8     LIBCMT:setmode.obj
 0004:000009b4       $pdata$_setmode_nolock     000000018001d9b4     LIBCMT:setmode.obj
 0004:000009c0       $pdata$_ld12tod            000000018001d9c0     LIBCMT:intrncvt.obj
 0004:000009cc       $pdata$_ld12tof            000000018001d9cc     LIBCMT:intrncvt.obj
 0004:000009d8       $pdata$__strgtold12_l      000000018001d9d8     LIBCMT:strgtold.obj
 0004:000009e4       $pdata$$I10_OUTPUT         000000018001d9e4     LIBCMT:x10fout.obj
 0004:000009fc       $pdata$__mtold12           000000018001d9fc     LIBCMT:mantold.obj
 0004:00000a08       $pdata$_onexit$fin$0       000000018001da08     LIBCMT:onexit.obj
 0004:00000a14       $pdata$_fsopen$fin$0       000000018001da14     LIBCMT:fopen.obj
 0004:00000a20       $pdata$fwrite$fin$0        000000018001da20     LIBCMT:fwrite.obj
 0004:00000a2c       $pdata$fclose$fin$0        000000018001da2c     LIBCMT:fclose.obj
 0004:00000a38       $pdata$_CRT_INIT$fin$0     000000018001da38     LIBCMT:dllcrt0.obj
 0004:00000a44       $pdata$__DllMainCRTStartup$filt$0 000000018001da44     LIBCMT:dllcrt0.obj
 0004:00000a50       $pdata$doexit$fin$0        000000018001da50     LIBCMT:crt0dat.obj
 0004:00000a5c       $pdata$_fcloseall$fin$0    000000018001da5c     LIBCMT:stream.obj
 0004:00000a5c       $pdata$_getstream$fin$0    000000018001da5c     LIBCMT:stream.obj
 0004:00000a68       $pdata$_lseeki64$fin$0     000000018001da68     LIBCMT:write.obj
 0004:00000a68       $pdata$_write$fin$0        000000018001da68     LIBCMT:write.obj
 0004:00000a74       $pdata$flsall$fin$0        000000018001da74     LIBCMT:fflush.obj
 0004:00000a80       $pdata$flsall$fin$1        000000018001da80     LIBCMT:fflush.obj
 0004:00000a8c       $pdata$_close$fin$0        000000018001da8c     LIBCMT:close.obj
 0004:00000a8c       $pdata$_commit$fin$0       000000018001da8c     LIBCMT:close.obj
 0004:00000a98       $pdata$_initptd$fin$1      000000018001da98     LIBCMT:tidtable.obj
 0004:00000a98       $pdata$_freefls$fin$1      000000018001da98     LIBCMT:tidtable.obj
 0004:00000aa4       $pdata$_initptd$fin$0      000000018001daa4     LIBCMT:tidtable.obj
 0004:00000aa4       $pdata$_freefls$fin$0      000000018001daa4     LIBCMT:tidtable.obj
 0004:00000ab0       $pdata$_ioinit$fin$0       000000018001dab0     LIBCMT:ioinit.obj
 0004:00000abc       $pdata$_mtinitlocknum$fin$0 000000018001dabc     LIBCMT:mlock.obj
 0004:00000ac8       $pdata$_IsNonwritableInCurrentImage$filt$0 000000018001dac8     LIBCMT:pesect.obj
 0004:00000ad4       $pdata$raise$fin$0         000000018001dad4     LIBCMT:winsig.obj
 0004:00000ae0       $pdata$_setmbcp$fin$0      000000018001dae0     LIBCMT:mbctype.obj
 0004:00000ae0       $pdata$__updatetmbcinfo$fin$0 000000018001dae0     LIBCMT:mbctype.obj
 0004:00000aec       $pdata$_sopen_helper$fin$0 000000018001daec     LIBCMT:open.obj
 0004:00000af8       $pdata$__lock_fhandle$fin$0 000000018001daf8     LIBCMT:osfinfo.obj
 0004:00000b04       $pdata$_alloc_osfhnd$fin$0 000000018001db04     LIBCMT:osfinfo.obj
 0004:00000b10       $pdata$_alloc_osfhnd$fin$1 000000018001db10     LIBCMT:osfinfo.obj
 0004:00000b1c       $pdata$__updatetlocinfo$fin$0 000000018001db1c     LIBCMT:localref.obj
 0004:00000b1c       $pdata$_locterm$fin$0      000000018001db1c     LIBCMT:localref.obj
 0005:00000060       $R000000                   000000018001e060     * linker generated manifest res *

 Exports

  ordinal    name

        1    _register_addon_
